Component: ARM Compiler 5.06 update 4 (build 422) Tool: armlink [4d35d2]

==============================================================================

Section Cross References

    startup_stm32f10x_md.o(RESET) refers to startup_stm32f10x_md.o(STACK) for __initial_sp
    startup_stm32f10x_md.o(RESET) refers to startup_stm32f10x_md.o(.text) for Reset_Handler
    startup_stm32f10x_md.o(RESET) refers to stm32f10x_it.o(i.NMI_Handler) for NMI_Handler
    startup_stm32f10x_md.o(RESET) refers to context_rvds.o(.text) for HardFault_Handler
    startup_stm32f10x_md.o(RESET) refers to stm32f10x_it.o(i.MemManage_Handler) for MemManage_Handler
    startup_stm32f10x_md.o(RESET) refers to stm32f10x_it.o(i.BusFault_Handler) for BusFault_Handler
    startup_stm32f10x_md.o(RESET) refers to stm32f10x_it.o(i.UsageFault_Handler) for UsageFault_Handler
    startup_stm32f10x_md.o(RESET) refers to stm32f10x_it.o(i.SVC_Handler) for SVC_Handler
    startup_stm32f10x_md.o(RESET) refers to stm32f10x_it.o(i.DebugMon_Handler) for DebugMon_Handler
    startup_stm32f10x_md.o(RESET) refers to board.o(i.SysTick_Handler) for SysTick_Handler
    startup_stm32f10x_md.o(RESET) refers to stm32f10x_it.o(i.RTC_IRQHandler) for RTC_IRQHandler
    startup_stm32f10x_md.o(RESET) refers to drv_uart.o(i.USART1_IRQHandler) for USART1_IRQHandler
    startup_stm32f10x_md.o(RESET) refers to drv_uart.o(i.USART2_IRQHandler) for USART2_IRQHandler
    startup_stm32f10x_md.o(RESET) refers to drv_uart.o(i.USART3_IRQHandler) for USART3_IRQHandler
    startup_stm32f10x_md.o(.text) refers to system_stm32f10x.o(i.SystemInit) for SystemInit
    startup_stm32f10x_md.o(.text) refers to entry.o(.ARM.Collect$$$$00000000) for __main
    stm32f10x_it.o(i.RTC_IRQHandler) refers to stm32f10x_rtc.o(i.RTC_GetITStatus) for RTC_GetITStatus
    stm32f10x_it.o(i.RTC_IRQHandler) refers to stm32f10x_rtc.o(i.RTC_ClearITPendingBit) for RTC_ClearITPendingBit
    system_stm32f10x.o(i.HSI_Config) refers to stm32f10x_rcc.o(i.RCC_DeInit) for RCC_DeInit
    system_stm32f10x.o(i.HSI_Config) refers to stm32f10x_rcc.o(i.RCC_HSICmd) for RCC_HSICmd
    system_stm32f10x.o(i.HSI_Config) refers to stm32f10x_rcc.o(i.RCC_GetFlagStatus) for RCC_GetFlagStatus
    system_stm32f10x.o(i.HSI_Config) refers to stm32f10x_rcc.o(i.RCC_HCLKConfig) for RCC_HCLKConfig
    system_stm32f10x.o(i.HSI_Config) refers to stm32f10x_rcc.o(i.RCC_PCLK2Config) for RCC_PCLK2Config
    system_stm32f10x.o(i.HSI_Config) refers to stm32f10x_rcc.o(i.RCC_PCLK1Config) for RCC_PCLK1Config
    system_stm32f10x.o(i.HSI_Config) refers to stm32f10x_flash.o(i.FLASH_SetLatency) for FLASH_SetLatency
    system_stm32f10x.o(i.HSI_Config) refers to stm32f10x_flash.o(i.FLASH_PrefetchBufferCmd) for FLASH_PrefetchBufferCmd
    system_stm32f10x.o(i.HSI_Config) refers to stm32f10x_rcc.o(i.RCC_PLLConfig) for RCC_PLLConfig
    system_stm32f10x.o(i.HSI_Config) refers to stm32f10x_rcc.o(i.RCC_PLLCmd) for RCC_PLLCmd
    system_stm32f10x.o(i.HSI_Config) refers to stm32f10x_rcc.o(i.RCC_SYSCLKConfig) for RCC_SYSCLKConfig
    system_stm32f10x.o(i.HSI_Config) refers to stm32f10x_rcc.o(i.RCC_GetSYSCLKSource) for RCC_GetSYSCLKSource
    system_stm32f10x.o(i.HSI_Config) refers to stm32f10x_rcc.o(i.RCC_APB2PeriphClockCmd) for RCC_APB2PeriphClockCmd
    system_stm32f10x.o(i.HSI_Config) refers to stm32f10x_gpio.o(i.GPIO_PinRemapConfig) for GPIO_PinRemapConfig
    system_stm32f10x.o(i.HSI_Config) refers to stm32f10x_gpio.o(i.GPIO_Init) for GPIO_Init
    system_stm32f10x.o(i.HSI_Config) refers to stm32f10x_gpio.o(i.GPIO_ResetBits) for GPIO_ResetBits
    system_stm32f10x.o(i.SetSysClock) refers to system_stm32f10x.o(i.SetSysClockTo72) for SetSysClockTo72
    system_stm32f10x.o(i.SystemCoreClockUpdate) refers to system_stm32f10x.o(.data) for SystemCoreClock
    system_stm32f10x.o(i.SystemInit) refers to system_stm32f10x.o(i.HSI_Config) for HSI_Config
    main.o(i.main) refers to printf8.o(i.__0printf$8) for __2printf
    main.o(i.main) refers to user_app.o(i.APP_Init) for APP_Init
    main.o(i.main) refers to drv_common.o(i.drv_wdog_feed) for drv_wdog_feed
    main.o(i.main) refers to drv_common.o(i.drv_get_sec_counter) for drv_get_sec_counter
    main.o(i.main) refers to drv_common.o(i.delay_os) for delay_os
    user_app.o(i.APP_Init) refers to thread.o(i.rt_thread_create) for rt_thread_create
    user_app.o(i.APP_Init) refers to thread.o(i.rt_thread_startup) for rt_thread_startup
    user_app.o(i.APP_Init) refers to user_app.o(i.app_uart_thread_entry) for app_uart_thread_entry
    user_app.o(i.APP_Init) refers to app_sx1278.o(i.app_sx1278_thread_entry) for app_sx1278_thread_entry
    user_app.o(i.app_uart_send) refers to drv_uart.o(i.UART2_Send) for UART2_Send
    user_app.o(i.app_uart_thread_entry) refers to drv_common.o(i.delay_ms) for delay_ms
    user_app.o(i.app_uart_thread_entry) refers to printf8.o(i.__0printf$8) for __2printf
    user_app.o(i.app_uart_thread_entry) refers to strstr.o(.text) for strstr
    user_app.o(i.app_uart_thread_entry) refers to drv_common.o(i.drv_system_reset) for drv_system_reset
    user_app.o(i.app_uart_thread_entry) refers to nwk_slave.o(i.nwk_slave_uart_parse) for nwk_slave_uart_parse
    user_app.o(i.app_uart_thread_entry) refers to drv_uart.o(i.UART_Clear) for UART_Clear
    user_app.o(i.app_uart_thread_entry) refers to drv_common.o(i.delay_os) for delay_os
    user_app.o(i.app_uart_thread_entry) refers to user_app.o(.data) for pUART
    user_app.o(.data) refers to drv_uart.o(.bss) for g_sUART1
    app_sx1278.o(i.app_sx1278_cs0) refers to stm32f10x_gpio.o(i.GPIO_ResetBits) for GPIO_ResetBits
    app_sx1278.o(i.app_sx1278_cs1) refers to stm32f10x_gpio.o(i.GPIO_SetBits) for GPIO_SetBits
    app_sx1278.o(i.app_sx1278_hal_init) refers to stm32f10x_rcc.o(i.RCC_APB2PeriphClockCmd) for RCC_APB2PeriphClockCmd
    app_sx1278.o(i.app_sx1278_hal_init) refers to stm32f10x_gpio.o(i.GPIO_Init) for GPIO_Init
    app_sx1278.o(i.app_sx1278_hal_init) refers to stm32f10x_spi.o(i.SPI_Init) for SPI_Init
    app_sx1278.o(i.app_sx1278_hal_init) refers to stm32f10x_spi.o(i.SPI_Cmd) for SPI_Cmd
    app_sx1278.o(i.app_sx1278_hal_init) refers to drv_sx1278.o(i.drv_sx1278_init) for drv_sx1278_init
    app_sx1278.o(i.app_sx1278_hal_init) refers to nwk_node.o(i.nwk_set_lora_dev) for nwk_set_lora_dev
    app_sx1278.o(i.app_sx1278_hal_init) refers to nwk_slave.o(i.nwk_slave_set_lora_dev) for nwk_slave_set_lora_dev
    app_sx1278.o(i.app_sx1278_hal_init) refers to printf8.o(i.__0printf$8) for __2printf
    app_sx1278.o(i.app_sx1278_hal_init) refers to app_sx1278.o(i.app_sx1278_reset) for app_sx1278_reset
    app_sx1278.o(i.app_sx1278_hal_init) refers to app_sx1278.o(.bss) for g_sDrvSx1278
    app_sx1278.o(i.app_sx1278_hal_init) refers to app_sx1278.o(i.app_sx1278_cs0) for app_sx1278_cs0
    app_sx1278.o(i.app_sx1278_hal_init) refers to app_sx1278.o(i.app_sx1278_cs1) for app_sx1278_cs1
    app_sx1278.o(i.app_sx1278_hal_init) refers to app_sx1278.o(i.app_sx1278_spi_rw_byte) for app_sx1278_spi_rw_byte
    app_sx1278.o(i.app_sx1278_init) refers to app_sx1278.o(i.app_sx1278_hal_init) for app_sx1278_hal_init
    app_sx1278.o(i.app_sx1278_init) refers to app_sx1278.o(i.bsp_sx1278_set_param) for bsp_sx1278_set_param
    app_sx1278.o(i.app_sx1278_reset) refers to stm32f10x_gpio.o(i.GPIO_ResetBits) for GPIO_ResetBits
    app_sx1278.o(i.app_sx1278_reset) refers to drv_common.o(i.delay_ms) for delay_ms
    app_sx1278.o(i.app_sx1278_reset) refers to stm32f10x_gpio.o(i.GPIO_SetBits) for GPIO_SetBits
    app_sx1278.o(i.app_sx1278_spi_rw_byte) refers to stm32f10x_spi.o(i.SPI_I2S_GetFlagStatus) for SPI_I2S_GetFlagStatus
    app_sx1278.o(i.app_sx1278_spi_rw_byte) refers to stm32f10x_spi.o(i.SPI_I2S_SendData) for SPI_I2S_SendData
    app_sx1278.o(i.app_sx1278_spi_rw_byte) refers to stm32f10x_spi.o(i.SPI_I2S_ReceiveData) for SPI_I2S_ReceiveData
    app_sx1278.o(i.app_sx1278_thread_entry) refers to app_sx1278.o(i.app_sx1278_init) for app_sx1278_init
    app_sx1278.o(i.app_sx1278_thread_entry) refers to nwk_node.o(i.nwk_node_main) for nwk_node_main
    app_sx1278.o(i.app_sx1278_thread_entry) refers to nwk_node.o(i.nwk_node_recv_from_check) for nwk_node_recv_from_check
    app_sx1278.o(i.app_sx1278_thread_entry) refers to drv_common.o(i.printf_hex) for printf_hex
    app_sx1278.o(i.app_sx1278_thread_entry) refers to drv_common.o(i.delay_os) for delay_os
    app_sx1278.o(i.bsp_sx1278_set_param) refers to drv_sx1278.o(i.drv_sx1278_set_rf_freq) for drv_sx1278_set_rf_freq
    app_sx1278.o(i.bsp_sx1278_set_param) refers to drv_sx1278.o(i.drv_sx1278_set_sf) for drv_sx1278_set_sf
    app_sx1278.o(i.bsp_sx1278_set_param) refers to drv_sx1278.o(i.drv_sx1278_set_bw) for drv_sx1278_set_bw
    app_sx1278.o(i.bsp_sx1278_set_param) refers to app_sx1278.o(.bss) for g_sDrvSx1278
    drv_common.o(i.EEPROM_Read) refers to memcpya.o(.text) for __aeabi_memcpy
    drv_common.o(i.EEPROM_Read) refers to drv_common.o(.bss) for g_u8BackUp
    drv_common.o(i.EEPROM_Write) refers to stm32f10x_flash.o(i.FLASH_Unlock) for FLASH_Unlock
    drv_common.o(i.EEPROM_Write) refers to drv_common.o(i.EEPROM_Read) for EEPROM_Read
    drv_common.o(i.EEPROM_Write) refers to memcpya.o(.text) for __aeabi_memcpy
    drv_common.o(i.EEPROM_Write) refers to stm32f10x_flash.o(i.FLASH_ErasePage) for FLASH_ErasePage
    drv_common.o(i.EEPROM_Write) refers to stm32f10x_flash.o(i.FLASH_ProgramWord) for FLASH_ProgramWord
    drv_common.o(i.EEPROM_Write) refers to stm32f10x_flash.o(i.FLASH_Lock) for FLASH_Lock
    drv_common.o(i.EEPROM_Write) refers to drv_common.o(.bss) for g_u8BackUp
    drv_common.o(i.delay_ms) refers to drv_common.o(.data) for tickets_ms
    drv_common.o(i.delay_os) refers to thread.o(i.rt_thread_delay) for rt_thread_delay
    drv_common.o(i.delay_us) refers to drv_common.o(.data) for tickets_us
    drv_common.o(i.drv_common_init) refers to stm32f10x_rcc.o(i.RCC_GetClocksFreq) for RCC_GetClocksFreq
    drv_common.o(i.drv_common_init) refers to drv_uart.o(i.UART_Init) for UART_Init
    drv_common.o(i.drv_common_init) refers to drv_common.o(i.drv_rtc_init) for drv_rtc_init
    drv_common.o(i.drv_common_init) refers to printf8.o(i.__0printf$8) for __2printf
    drv_common.o(i.drv_common_init) refers to drv_common.o(.data) for tickets_us
    drv_common.o(i.drv_crc16) refers to drv_common.o(.constdata) for auchCRCHi
    drv_common.o(i.drv_get_rtc_counter) refers to stm32f10x_rtc.o(i.RTC_GetCounter) for RTC_GetCounter
    drv_common.o(i.drv_get_sec_counter) refers to drv_common.o(.data) for g_u32SecCounter
    drv_common.o(i.drv_rtc_init) refers to stm32f10x_rcc.o(i.RCC_APB1PeriphClockCmd) for RCC_APB1PeriphClockCmd
    drv_common.o(i.drv_rtc_init) refers to stm32f10x_pwr.o(i.PWR_BackupAccessCmd) for PWR_BackupAccessCmd
    drv_common.o(i.drv_rtc_init) refers to stm32f10x_bkp.o(i.BKP_ReadBackupRegister) for BKP_ReadBackupRegister
    drv_common.o(i.drv_rtc_init) refers to stm32f10x_bkp.o(i.BKP_DeInit) for BKP_DeInit
    drv_common.o(i.drv_rtc_init) refers to stm32f10x_rcc.o(i.RCC_LSEConfig) for RCC_LSEConfig
    drv_common.o(i.drv_rtc_init) refers to drv_common.o(i.delay_ms) for delay_ms
    drv_common.o(i.drv_rtc_init) refers to stm32f10x_rcc.o(i.RCC_GetFlagStatus) for RCC_GetFlagStatus
    drv_common.o(i.drv_rtc_init) refers to stm32f10x_rcc.o(i.RCC_RTCCLKConfig) for RCC_RTCCLKConfig
    drv_common.o(i.drv_rtc_init) refers to printf8.o(i.__0printf$8) for __2printf
    drv_common.o(i.drv_rtc_init) refers to stm32f10x_rcc.o(i.RCC_LSICmd) for RCC_LSICmd
    drv_common.o(i.drv_rtc_init) refers to stm32f10x_rcc.o(i.RCC_RTCCLKCmd) for RCC_RTCCLKCmd
    drv_common.o(i.drv_rtc_init) refers to stm32f10x_bkp.o(i.BKP_TamperPinCmd) for BKP_TamperPinCmd
    drv_common.o(i.drv_rtc_init) refers to stm32f10x_bkp.o(i.BKP_RTCOutputConfig) for BKP_RTCOutputConfig
    drv_common.o(i.drv_rtc_init) refers to stm32f10x_rtc.o(i.RTC_WaitForSynchro) for RTC_WaitForSynchro
    drv_common.o(i.drv_rtc_init) refers to stm32f10x_rtc.o(i.RTC_WaitForLastTask) for RTC_WaitForLastTask
    drv_common.o(i.drv_rtc_init) refers to stm32f10x_rtc.o(i.RTC_SetCounter) for RTC_SetCounter
    drv_common.o(i.drv_rtc_init) refers to stm32f10x_bkp.o(i.BKP_WriteBackupRegister) for BKP_WriteBackupRegister
    drv_common.o(i.drv_set_rtc_counter) refers to stm32f10x_rtc.o(i.RTC_SetCounter) for RTC_SetCounter
    drv_common.o(i.drv_set_sec_counter) refers to drv_common.o(.data) for g_u32SecCounter
    drv_common.o(i.drv_system_reset) refers to printf8.o(i.__0printf$8) for __2printf
    drv_common.o(i.drv_system_reset) refers to stm32f10x_rcc.o(i.RCC_APB1PeriphClockCmd) for RCC_APB1PeriphClockCmd
    drv_common.o(i.drv_system_reset) refers to stm32f10x_wwdg.o(i.WWDG_SetPrescaler) for WWDG_SetPrescaler
    drv_common.o(i.drv_system_reset) refers to stm32f10x_wwdg.o(i.WWDG_SetWindowValue) for WWDG_SetWindowValue
    drv_common.o(i.drv_system_reset) refers to stm32f10x_wwdg.o(i.WWDG_Enable) for WWDG_Enable
    drv_common.o(i.drv_system_reset) refers to drv_common.o(.data) for bWatchDog
    drv_common.o(i.memstr) refers to memcmp.o(.text) for memcmp
    drv_common.o(i.printf_hex) refers to printf8.o(i.__0printf$8) for __2printf
    drv_uart.o(i.UART1_Init) refers to stm32f10x_rcc.o(i.RCC_APB2PeriphClockCmd) for RCC_APB2PeriphClockCmd
    drv_uart.o(i.UART1_Init) refers to stm32f10x_gpio.o(i.GPIO_Init) for GPIO_Init
    drv_uart.o(i.UART1_Init) refers to stm32f10x_usart.o(i.USART_Init) for USART_Init
    drv_uart.o(i.UART1_Init) refers to misc.o(i.NVIC_Init) for NVIC_Init
    drv_uart.o(i.UART1_Init) refers to stm32f10x_usart.o(i.USART_ITConfig) for USART_ITConfig
    drv_uart.o(i.UART1_Init) refers to stm32f10x_usart.o(i.USART_Cmd) for USART_Cmd
    drv_uart.o(i.UART1_Init) refers to drv_uart.o(.bss) for g_sUART1
    drv_uart.o(i.UART1_Send) refers to stm32f10x_usart.o(i.USART_GetFlagStatus) for USART_GetFlagStatus
    drv_uart.o(i.UART1_Send) refers to stm32f10x_usart.o(i.USART_SendData) for USART_SendData
    drv_uart.o(i.UART1_Send) refers to drv_common.o(i.delay_ms) for delay_ms
    drv_uart.o(i.UART2_Init) refers to stm32f10x_rcc.o(i.RCC_APB1PeriphClockCmd) for RCC_APB1PeriphClockCmd
    drv_uart.o(i.UART2_Init) refers to stm32f10x_rcc.o(i.RCC_APB2PeriphClockCmd) for RCC_APB2PeriphClockCmd
    drv_uart.o(i.UART2_Init) refers to stm32f10x_gpio.o(i.GPIO_Init) for GPIO_Init
    drv_uart.o(i.UART2_Init) refers to stm32f10x_usart.o(i.USART_Init) for USART_Init
    drv_uart.o(i.UART2_Init) refers to misc.o(i.NVIC_Init) for NVIC_Init
    drv_uart.o(i.UART2_Init) refers to stm32f10x_usart.o(i.USART_ITConfig) for USART_ITConfig
    drv_uart.o(i.UART2_Init) refers to stm32f10x_usart.o(i.USART_Cmd) for USART_Cmd
    drv_uart.o(i.UART2_Init) refers to drv_uart.o(.bss) for g_sUART2
    drv_uart.o(i.UART2_Send) refers to stm32f10x_usart.o(i.USART_GetFlagStatus) for USART_GetFlagStatus
    drv_uart.o(i.UART2_Send) refers to stm32f10x_usart.o(i.USART_SendData) for USART_SendData
    drv_uart.o(i.UART2_Send) refers to drv_common.o(i.delay_ms) for delay_ms
    drv_uart.o(i.UART3_Init) refers to stm32f10x_rcc.o(i.RCC_APB1PeriphClockCmd) for RCC_APB1PeriphClockCmd
    drv_uart.o(i.UART3_Init) refers to stm32f10x_rcc.o(i.RCC_APB2PeriphClockCmd) for RCC_APB2PeriphClockCmd
    drv_uart.o(i.UART3_Init) refers to stm32f10x_gpio.o(i.GPIO_Init) for GPIO_Init
    drv_uart.o(i.UART3_Init) refers to stm32f10x_usart.o(i.USART_Init) for USART_Init
    drv_uart.o(i.UART3_Init) refers to misc.o(i.NVIC_Init) for NVIC_Init
    drv_uart.o(i.UART3_Init) refers to stm32f10x_usart.o(i.USART_ITConfig) for USART_ITConfig
    drv_uart.o(i.UART3_Init) refers to stm32f10x_usart.o(i.USART_Cmd) for USART_Cmd
    drv_uart.o(i.UART3_Init) refers to drv_uart.o(.bss) for g_sUART3
    drv_uart.o(i.UART3_Send) refers to stm32f10x_usart.o(i.USART_GetFlagStatus) for USART_GetFlagStatus
    drv_uart.o(i.UART3_Send) refers to stm32f10x_usart.o(i.USART_SendData) for USART_SendData
    drv_uart.o(i.UART3_Send) refers to drv_common.o(i.delay_ms) for delay_ms
    drv_uart.o(i.UART_Clear) refers to memseta.o(.text) for __aeabi_memclr
    drv_uart.o(i.UART_Init) refers to drv_uart.o(i.UART1_Init) for UART1_Init
    drv_uart.o(i.UART_Init) refers to drv_uart.o(i.UART2_Init) for UART2_Init
    drv_uart.o(i.UART_Init) refers to drv_uart.o(i.UART3_Init) for UART3_Init
    drv_uart.o(i.UART_Init) refers to printf8.o(i.__0printf$8) for __2printf
    drv_uart.o(i.UART_Send) refers to stm32f10x_usart.o(i.USART_GetFlagStatus) for USART_GetFlagStatus
    drv_uart.o(i.UART_Send) refers to stm32f10x_usart.o(i.USART_SendData) for USART_SendData
    drv_uart.o(i.UART_Send) refers to drv_common.o(i.delay_ms) for delay_ms
    drv_uart.o(i.UART_Send) refers to drv_uart.o(.bss) for g_sUART1
    drv_uart.o(i.USART1_IRQHandler) refers to stm32f10x_usart.o(i.USART_GetITStatus) for USART_GetITStatus
    drv_uart.o(i.USART1_IRQHandler) refers to stm32f10x_usart.o(i.USART_ReceiveData) for USART_ReceiveData
    drv_uart.o(i.USART1_IRQHandler) refers to stm32f10x_usart.o(i.USART_ClearITPendingBit) for USART_ClearITPendingBit
    drv_uart.o(i.USART1_IRQHandler) refers to stm32f10x_usart.o(i.USART_ClearFlag) for USART_ClearFlag
    drv_uart.o(i.USART1_IRQHandler) refers to stm32f10x_usart.o(i.USART_GetFlagStatus) for USART_GetFlagStatus
    drv_uart.o(i.USART1_IRQHandler) refers to drv_uart.o(.bss) for g_sUART1
    drv_uart.o(i.USART2_IRQHandler) refers to stm32f10x_usart.o(i.USART_GetITStatus) for USART_GetITStatus
    drv_uart.o(i.USART2_IRQHandler) refers to stm32f10x_usart.o(i.USART_ReceiveData) for USART_ReceiveData
    drv_uart.o(i.USART2_IRQHandler) refers to stm32f10x_usart.o(i.USART_ClearITPendingBit) for USART_ClearITPendingBit
    drv_uart.o(i.USART2_IRQHandler) refers to stm32f10x_usart.o(i.USART_ClearFlag) for USART_ClearFlag
    drv_uart.o(i.USART2_IRQHandler) refers to stm32f10x_usart.o(i.USART_GetFlagStatus) for USART_GetFlagStatus
    drv_uart.o(i.USART2_IRQHandler) refers to drv_uart.o(.bss) for g_sUART2
    drv_uart.o(i.USART3_IRQHandler) refers to stm32f10x_usart.o(i.USART_GetITStatus) for USART_GetITStatus
    drv_uart.o(i.USART3_IRQHandler) refers to stm32f10x_usart.o(i.USART_ReceiveData) for USART_ReceiveData
    drv_uart.o(i.USART3_IRQHandler) refers to stm32f10x_usart.o(i.USART_ClearITPendingBit) for USART_ClearITPendingBit
    drv_uart.o(i.USART3_IRQHandler) refers to stm32f10x_usart.o(i.USART_ClearFlag) for USART_ClearFlag
    drv_uart.o(i.USART3_IRQHandler) refers to stm32f10x_usart.o(i.USART_GetFlagStatus) for USART_GetFlagStatus
    drv_uart.o(i.USART3_IRQHandler) refers to drv_uart.o(.bss) for g_sUART3
    drv_uart.o(i.fputc) refers to stm32f10x_usart.o(i.USART_SendData) for USART_SendData
    drv_uart.o(i.fputc) refers to stm32f10x_usart.o(i.USART_GetFlagStatus) for USART_GetFlagStatus
    board.o(i.SysTick_Handler) refers to irq.o(i.rt_interrupt_enter) for rt_interrupt_enter
    board.o(i.SysTick_Handler) refers to clock.o(i.rt_tick_increase) for rt_tick_increase
    board.o(i.SysTick_Handler) refers to irq.o(i.rt_interrupt_leave) for rt_interrupt_leave
    board.o(i.SysTick_Handler) refers to board.o(.data) for tickets
    board.o(i.SysTick_Handler) refers to drv_common.o(.data) for g_u32SecCounter
    board.o(i.rt_heap_begin_get) refers to board.o(.bss) for rt_heap
    board.o(i.rt_heap_end_get) refers to board.o(.bss) for rt_heap
    board.o(i.rt_hw_board_init) refers to drv_common.o(i.drv_wdog_init) for drv_wdog_init
    board.o(i.rt_hw_board_init) refers to system_stm32f10x.o(i.SystemCoreClockUpdate) for SystemCoreClockUpdate
    board.o(i.rt_hw_board_init) refers to board.o(i._SysTick_Config) for _SysTick_Config
    board.o(i.rt_hw_board_init) refers to drv_common.o(i.drv_common_init) for drv_common_init
    board.o(i.rt_hw_board_init) refers to components.o(i.rt_components_board_init) for rt_components_board_init
    board.o(i.rt_hw_board_init) refers to board.o(i.rt_heap_end_get) for rt_heap_end_get
    board.o(i.rt_hw_board_init) refers to board.o(i.rt_heap_begin_get) for rt_heap_begin_get
    board.o(i.rt_hw_board_init) refers to mem.o(i.rt_system_heap_init) for rt_system_heap_init
    board.o(i.rt_hw_board_init) refers to system_stm32f10x.o(.data) for SystemCoreClock
    drv_iic.o(i.IIC_Ack) refers to stm32f10x_gpio.o(i.GPIO_ResetBits) for GPIO_ResetBits
    drv_iic.o(i.IIC_Ack) refers to drv_common.o(i.delay_us) for delay_us
    drv_iic.o(i.IIC_Ack) refers to stm32f10x_gpio.o(i.GPIO_SetBits) for GPIO_SetBits
    drv_iic.o(i.IIC_GPIOInit) refers to stm32f10x_gpio.o(i.GPIO_Init) for GPIO_Init
    drv_iic.o(i.IIC_NAck) refers to stm32f10x_gpio.o(i.GPIO_ResetBits) for GPIO_ResetBits
    drv_iic.o(i.IIC_NAck) refers to drv_common.o(i.delay_us) for delay_us
    drv_iic.o(i.IIC_NAck) refers to stm32f10x_gpio.o(i.GPIO_SetBits) for GPIO_SetBits
    drv_iic.o(i.IIC_ReadByte) refers to drv_iic.o(i.IIC_SdaInMode) for IIC_SdaInMode
    drv_iic.o(i.IIC_ReadByte) refers to stm32f10x_gpio.o(i.GPIO_ResetBits) for GPIO_ResetBits
    drv_iic.o(i.IIC_ReadByte) refers to drv_common.o(i.delay_us) for delay_us
    drv_iic.o(i.IIC_ReadByte) refers to stm32f10x_gpio.o(i.GPIO_SetBits) for GPIO_SetBits
    drv_iic.o(i.IIC_ReadByte) refers to stm32f10x_gpio.o(i.GPIO_ReadInputDataBit) for GPIO_ReadInputDataBit
    drv_iic.o(i.IIC_ReadByte) refers to drv_iic.o(i.IIC_SdaOutMode) for IIC_SdaOutMode
    drv_iic.o(i.IIC_SdaInMode) refers to stm32f10x_gpio.o(i.GPIO_Init) for GPIO_Init
    drv_iic.o(i.IIC_SdaOutMode) refers to stm32f10x_gpio.o(i.GPIO_Init) for GPIO_Init
    drv_iic.o(i.IIC_Start) refers to stm32f10x_gpio.o(i.GPIO_SetBits) for GPIO_SetBits
    drv_iic.o(i.IIC_Start) refers to drv_common.o(i.delay_us) for delay_us
    drv_iic.o(i.IIC_Start) refers to stm32f10x_gpio.o(i.GPIO_ResetBits) for GPIO_ResetBits
    drv_iic.o(i.IIC_Stop) refers to stm32f10x_gpio.o(i.GPIO_ResetBits) for GPIO_ResetBits
    drv_iic.o(i.IIC_Stop) refers to stm32f10x_gpio.o(i.GPIO_SetBits) for GPIO_SetBits
    drv_iic.o(i.IIC_Stop) refers to drv_common.o(i.delay_us) for delay_us
    drv_iic.o(i.IIC_WaitAck) refers to stm32f10x_gpio.o(i.GPIO_ResetBits) for GPIO_ResetBits
    drv_iic.o(i.IIC_WaitAck) refers to drv_iic.o(i.IIC_SdaInMode) for IIC_SdaInMode
    drv_iic.o(i.IIC_WaitAck) refers to drv_common.o(i.delay_us) for delay_us
    drv_iic.o(i.IIC_WaitAck) refers to drv_iic.o(i.IIC_SdaOutMode) for IIC_SdaOutMode
    drv_iic.o(i.IIC_WaitAck) refers to drv_iic.o(i.IIC_Stop) for IIC_Stop
    drv_iic.o(i.IIC_WaitAck) refers to stm32f10x_gpio.o(i.GPIO_ReadInputDataBit) for GPIO_ReadInputDataBit
    drv_iic.o(i.IIC_WaitAck) refers to stm32f10x_gpio.o(i.GPIO_SetBits) for GPIO_SetBits
    drv_iic.o(i.IIC_WriteByte) refers to stm32f10x_gpio.o(i.GPIO_ResetBits) for GPIO_ResetBits
    drv_iic.o(i.IIC_WriteByte) refers to stm32f10x_gpio.o(i.GPIO_SetBits) for GPIO_SetBits
    drv_iic.o(i.IIC_WriteByte) refers to drv_common.o(i.delay_us) for delay_us
    drv_encrypt.o(i.aes_decrypt_buff) refers to memseta.o(.text) for __aeabi_memclr4
    drv_encrypt.o(i.aes_decrypt_buff) refers to strlen.o(.text) for strlen
    drv_encrypt.o(i.aes_decrypt_buff) refers to memcpya.o(.text) for __aeabi_memcpy
    drv_encrypt.o(i.aes_decrypt_buff) refers to strcpy.o(.text) for strcpy
    drv_encrypt.o(i.aes_decrypt_buff) refers to aes.o(i.mbedtls_aes_init) for mbedtls_aes_init
    drv_encrypt.o(i.aes_decrypt_buff) refers to aes.o(i.mbedtls_aes_setkey_dec) for mbedtls_aes_setkey_dec
    drv_encrypt.o(i.aes_decrypt_buff) refers to aes.o(i.mbedtls_aes_crypt_cbc) for mbedtls_aes_crypt_cbc
    drv_encrypt.o(i.aes_encrypt_buff) refers to memseta.o(.text) for __aeabi_memclr4
    drv_encrypt.o(i.aes_encrypt_buff) refers to strlen.o(.text) for strlen
    drv_encrypt.o(i.aes_encrypt_buff) refers to memcpya.o(.text) for __aeabi_memcpy
    drv_encrypt.o(i.aes_encrypt_buff) refers to strcpy.o(.text) for strcpy
    drv_encrypt.o(i.aes_encrypt_buff) refers to aes.o(i.mbedtls_aes_init) for mbedtls_aes_init
    drv_encrypt.o(i.aes_encrypt_buff) refers to aes.o(i.mbedtls_aes_setkey_enc) for mbedtls_aes_setkey_enc
    drv_encrypt.o(i.aes_encrypt_buff) refers to aes.o(i.mbedtls_aes_crypt_cbc) for mbedtls_aes_crypt_cbc
    drv_encrypt.o(i.aes_encrypt_buff) refers to drv_encrypt.o(.bss) for aes_ctx
    drv_encrypt.o(i.tea_decrypt_buff) refers to printf8.o(i.__0printf$8) for __2printf
    drv_encrypt.o(i.tea_decrypt_buff) refers to drv_encrypt.o(i.DecryptTEA) for DecryptTEA
    drv_encrypt.o(i.tea_encrypt_buff) refers to printf8.o(i.__0printf$8) for __2printf
    drv_encrypt.o(i.tea_encrypt_buff) refers to drv_encrypt.o(i.EncryptTEA) for EncryptTEA
    cpuport.o(i.rt_hw_exception_install) refers to cpuport.o(.data) for rt_exception_hook
    cpuport.o(i.rt_hw_hard_fault_exception) refers to cpuport.o(.data) for rt_exception_hook
    clock.o(i.rt_tick_get) refers to clock.o(.data) for rt_tick
    clock.o(i.rt_tick_increase) refers to thread.o(i.rt_thread_self) for rt_thread_self
    clock.o(i.rt_tick_increase) refers to thread.o(i.rt_thread_yield) for rt_thread_yield
    clock.o(i.rt_tick_increase) refers to timer.o(i.rt_timer_check) for rt_timer_check
    clock.o(i.rt_tick_increase) refers to clock.o(.data) for rt_tick
    clock.o(i.rt_tick_set) refers to context_rvds.o(.text) for rt_hw_interrupt_disable
    clock.o(i.rt_tick_set) refers to clock.o(.data) for rt_tick
    components.o(i.$Sub$$main) refers to context_rvds.o(.text) for rt_hw_interrupt_disable
    components.o(i.$Sub$$main) refers to components.o(i.rtthread_startup) for rtthread_startup
    components.o(i.main_thread_entry) refers to components.o(i.rt_components_init) for rt_components_init
    components.o(i.main_thread_entry) refers to main.o(i.main) for $Super$$main
    components.o(i.rt_application_init) refers to thread.o(i.rt_thread_create) for rt_thread_create
    components.o(i.rt_application_init) refers to thread.o(i.rt_thread_startup) for rt_thread_startup
    components.o(i.rt_application_init) refers to components.o(i.main_thread_entry) for main_thread_entry
    components.o(i.rt_components_board_init) refers to components.o(.rti_fn.0.end) for __rt_init_rti_board_start
    components.o(i.rt_components_board_init) refers to components.o(.rti_fn.1.end) for __rt_init_rti_board_end
    components.o(i.rt_components_init) refers to components.o(.rti_fn.1.end) for __rt_init_rti_board_end
    components.o(i.rt_components_init) refers to components.o(.rti_fn.6.end) for __rt_init_rti_end
    components.o(i.rtthread_startup) refers to context_rvds.o(.text) for rt_hw_interrupt_disable
    components.o(i.rtthread_startup) refers to board.o(i.rt_hw_board_init) for rt_hw_board_init
    components.o(i.rtthread_startup) refers to kservice.o(i.rt_show_version) for rt_show_version
    components.o(i.rtthread_startup) refers to timer.o(i.rt_system_timer_init) for rt_system_timer_init
    components.o(i.rtthread_startup) refers to scheduler.o(i.rt_system_scheduler_init) for rt_system_scheduler_init
    components.o(i.rtthread_startup) refers to components.o(i.rt_application_init) for rt_application_init
    components.o(i.rtthread_startup) refers to timer.o(i.rt_system_timer_thread_init) for rt_system_timer_thread_init
    components.o(i.rtthread_startup) refers to idle.o(i.rt_thread_idle_init) for rt_thread_idle_init
    components.o(i.rtthread_startup) refers to scheduler.o(i.rt_system_scheduler_start) for rt_system_scheduler_start
    components.o(.rti_fn.0) refers to components.o(i.rti_start) for rti_start
    components.o(.rti_fn.0.end) refers to components.o(i.rti_board_start) for rti_board_start
    components.o(.rti_fn.1.end) refers to components.o(i.rti_board_end) for rti_board_end
    components.o(.rti_fn.6.end) refers to components.o(i.rti_end) for rti_end
    idle.o(i._has_defunct_thread) refers to scheduler.o(.data) for rt_thread_defunct
    idle.o(i.rt_thread_idle_entry) refers to idle.o(i.rt_thread_idle_excute) for rt_thread_idle_excute
    idle.o(i.rt_thread_idle_excute) refers to context_rvds.o(.text) for rt_hw_interrupt_disable
    idle.o(i.rt_thread_idle_excute) refers to idle.o(i._has_defunct_thread) for _has_defunct_thread
    idle.o(i.rt_thread_idle_excute) refers to scheduler.o(i.rt_enter_critical) for rt_enter_critical
    idle.o(i.rt_thread_idle_excute) refers to object.o(i.rt_object_is_systemobject) for rt_object_is_systemobject
    idle.o(i.rt_thread_idle_excute) refers to scheduler.o(i.rt_exit_critical) for rt_exit_critical
    idle.o(i.rt_thread_idle_excute) refers to mem.o(i.rt_free) for rt_free
    idle.o(i.rt_thread_idle_excute) refers to object.o(i.rt_object_delete) for rt_object_delete
    idle.o(i.rt_thread_idle_excute) refers to scheduler.o(.data) for rt_thread_defunct
    idle.o(i.rt_thread_idle_gethandler) refers to idle.o(.bss) for idle
    idle.o(i.rt_thread_idle_init) refers to thread.o(i.rt_thread_init) for rt_thread_init
    idle.o(i.rt_thread_idle_init) refers to thread.o(i.rt_thread_startup) for rt_thread_startup
    idle.o(i.rt_thread_idle_init) refers to idle.o(.bss) for rt_thread_stack
    idle.o(i.rt_thread_idle_init) refers to idle.o(i.rt_thread_idle_entry) for rt_thread_idle_entry
    ipc.o(i.rt_ipc_list_resume) refers to thread.o(i.rt_thread_resume) for rt_thread_resume
    ipc.o(i.rt_ipc_list_resume_all) refers to context_rvds.o(.text) for rt_hw_interrupt_disable
    ipc.o(i.rt_ipc_list_resume_all) refers to thread.o(i.rt_thread_resume) for rt_thread_resume
    ipc.o(i.rt_ipc_list_resume_all) refers to ipc.o(i.rt_list_isempty) for rt_list_isempty
    ipc.o(i.rt_ipc_list_suspend) refers to thread.o(i.rt_thread_suspend) for rt_thread_suspend
    ipc.o(i.rt_ipc_list_suspend) refers to ipc.o(i.rt_list_insert_before) for rt_list_insert_before
    ipc.o(i.rt_ipc_object_init) refers to ipc.o(i.rt_list_init) for rt_list_init
    ipc.o(i.rt_mb_control) refers to context_rvds.o(.text) for rt_hw_interrupt_disable
    ipc.o(i.rt_mb_control) refers to ipc.o(i.rt_ipc_list_resume_all) for rt_ipc_list_resume_all
    ipc.o(i.rt_mb_control) refers to scheduler.o(i.rt_schedule) for rt_schedule
    ipc.o(i.rt_mb_create) refers to object.o(i.rt_object_allocate) for rt_object_allocate
    ipc.o(i.rt_mb_create) refers to ipc.o(i.rt_ipc_object_init) for rt_ipc_object_init
    ipc.o(i.rt_mb_create) refers to mem.o(i.rt_malloc) for rt_malloc
    ipc.o(i.rt_mb_create) refers to object.o(i.rt_object_delete) for rt_object_delete
    ipc.o(i.rt_mb_create) refers to ipc.o(i.rt_list_init) for rt_list_init
    ipc.o(i.rt_mb_delete) refers to ipc.o(i.rt_ipc_list_resume_all) for rt_ipc_list_resume_all
    ipc.o(i.rt_mb_delete) refers to mem.o(i.rt_free) for rt_free
    ipc.o(i.rt_mb_delete) refers to object.o(i.rt_object_delete) for rt_object_delete
    ipc.o(i.rt_mb_detach) refers to ipc.o(i.rt_ipc_list_resume_all) for rt_ipc_list_resume_all
    ipc.o(i.rt_mb_detach) refers to object.o(i.rt_object_detach) for rt_object_detach
    ipc.o(i.rt_mb_init) refers to object.o(i.rt_object_init) for rt_object_init
    ipc.o(i.rt_mb_init) refers to ipc.o(i.rt_ipc_object_init) for rt_ipc_object_init
    ipc.o(i.rt_mb_init) refers to ipc.o(i.rt_list_init) for rt_list_init
    ipc.o(i.rt_mb_recv) refers to thread.o(i.rt_thread_self) for rt_thread_self
    ipc.o(i.rt_mb_recv) refers to context_rvds.o(.text) for rt_hw_interrupt_disable
    ipc.o(i.rt_mb_recv) refers to ipc.o(i.rt_ipc_list_suspend) for rt_ipc_list_suspend
    ipc.o(i.rt_mb_recv) refers to clock.o(i.rt_tick_get) for rt_tick_get
    ipc.o(i.rt_mb_recv) refers to timer.o(i.rt_timer_control) for rt_timer_control
    ipc.o(i.rt_mb_recv) refers to timer.o(i.rt_timer_start) for rt_timer_start
    ipc.o(i.rt_mb_recv) refers to scheduler.o(i.rt_schedule) for rt_schedule
    ipc.o(i.rt_mb_recv) refers to ipc.o(i.rt_list_isempty) for rt_list_isempty
    ipc.o(i.rt_mb_recv) refers to ipc.o(i.rt_ipc_list_resume) for rt_ipc_list_resume
    ipc.o(i.rt_mb_send) refers to ipc.o(i.rt_mb_send_wait) for rt_mb_send_wait
    ipc.o(i.rt_mb_send_wait) refers to thread.o(i.rt_thread_self) for rt_thread_self
    ipc.o(i.rt_mb_send_wait) refers to context_rvds.o(.text) for rt_hw_interrupt_disable
    ipc.o(i.rt_mb_send_wait) refers to ipc.o(i.rt_ipc_list_suspend) for rt_ipc_list_suspend
    ipc.o(i.rt_mb_send_wait) refers to clock.o(i.rt_tick_get) for rt_tick_get
    ipc.o(i.rt_mb_send_wait) refers to timer.o(i.rt_timer_control) for rt_timer_control
    ipc.o(i.rt_mb_send_wait) refers to timer.o(i.rt_timer_start) for rt_timer_start
    ipc.o(i.rt_mb_send_wait) refers to scheduler.o(i.rt_schedule) for rt_schedule
    ipc.o(i.rt_mb_send_wait) refers to ipc.o(i.rt_list_isempty) for rt_list_isempty
    ipc.o(i.rt_mb_send_wait) refers to ipc.o(i.rt_ipc_list_resume) for rt_ipc_list_resume
    ipc.o(i.rt_mq_control) refers to context_rvds.o(.text) for rt_hw_interrupt_disable
    ipc.o(i.rt_mq_control) refers to ipc.o(i.rt_ipc_list_resume_all) for rt_ipc_list_resume_all
    ipc.o(i.rt_mq_control) refers to scheduler.o(i.rt_schedule) for rt_schedule
    ipc.o(i.rt_mq_create) refers to object.o(i.rt_object_allocate) for rt_object_allocate
    ipc.o(i.rt_mq_create) refers to ipc.o(i.rt_ipc_object_init) for rt_ipc_object_init
    ipc.o(i.rt_mq_create) refers to mem.o(i.rt_malloc) for rt_malloc
    ipc.o(i.rt_mq_create) refers to ipc.o(i.rt_mq_delete) for rt_mq_delete
    ipc.o(i.rt_mq_delete) refers to ipc.o(i.rt_ipc_list_resume_all) for rt_ipc_list_resume_all
    ipc.o(i.rt_mq_delete) refers to mem.o(i.rt_free) for rt_free
    ipc.o(i.rt_mq_delete) refers to object.o(i.rt_object_delete) for rt_object_delete
    ipc.o(i.rt_mq_detach) refers to ipc.o(i.rt_ipc_list_resume_all) for rt_ipc_list_resume_all
    ipc.o(i.rt_mq_detach) refers to object.o(i.rt_object_detach) for rt_object_detach
    ipc.o(i.rt_mq_init) refers to object.o(i.rt_object_init) for rt_object_init
    ipc.o(i.rt_mq_init) refers to ipc.o(i.rt_ipc_object_init) for rt_ipc_object_init
    ipc.o(i.rt_mq_recv) refers to thread.o(i.rt_thread_self) for rt_thread_self
    ipc.o(i.rt_mq_recv) refers to context_rvds.o(.text) for rt_hw_interrupt_disable
    ipc.o(i.rt_mq_recv) refers to ipc.o(i.rt_ipc_list_suspend) for rt_ipc_list_suspend
    ipc.o(i.rt_mq_recv) refers to clock.o(i.rt_tick_get) for rt_tick_get
    ipc.o(i.rt_mq_recv) refers to timer.o(i.rt_timer_control) for rt_timer_control
    ipc.o(i.rt_mq_recv) refers to timer.o(i.rt_timer_start) for rt_timer_start
    ipc.o(i.rt_mq_recv) refers to scheduler.o(i.rt_schedule) for rt_schedule
    ipc.o(i.rt_mq_recv) refers to kservice.o(i.rt_memcpy) for rt_memcpy
    ipc.o(i.rt_mq_send) refers to context_rvds.o(.text) for rt_hw_interrupt_disable
    ipc.o(i.rt_mq_send) refers to kservice.o(i.rt_memcpy) for rt_memcpy
    ipc.o(i.rt_mq_send) refers to ipc.o(i.rt_list_isempty) for rt_list_isempty
    ipc.o(i.rt_mq_send) refers to ipc.o(i.rt_ipc_list_resume) for rt_ipc_list_resume
    ipc.o(i.rt_mq_send) refers to scheduler.o(i.rt_schedule) for rt_schedule
    ipc.o(i.rt_mq_urgent) refers to context_rvds.o(.text) for rt_hw_interrupt_disable
    ipc.o(i.rt_mq_urgent) refers to kservice.o(i.rt_memcpy) for rt_memcpy
    ipc.o(i.rt_mq_urgent) refers to ipc.o(i.rt_list_isempty) for rt_list_isempty
    ipc.o(i.rt_mq_urgent) refers to ipc.o(i.rt_ipc_list_resume) for rt_ipc_list_resume
    ipc.o(i.rt_mq_urgent) refers to scheduler.o(i.rt_schedule) for rt_schedule
    ipc.o(i.rt_mutex_create) refers to object.o(i.rt_object_allocate) for rt_object_allocate
    ipc.o(i.rt_mutex_create) refers to ipc.o(i.rt_ipc_object_init) for rt_ipc_object_init
    ipc.o(i.rt_mutex_delete) refers to ipc.o(i.rt_ipc_list_resume_all) for rt_ipc_list_resume_all
    ipc.o(i.rt_mutex_delete) refers to object.o(i.rt_object_delete) for rt_object_delete
    ipc.o(i.rt_mutex_detach) refers to ipc.o(i.rt_ipc_list_resume_all) for rt_ipc_list_resume_all
    ipc.o(i.rt_mutex_detach) refers to object.o(i.rt_object_detach) for rt_object_detach
    ipc.o(i.rt_mutex_init) refers to object.o(i.rt_object_init) for rt_object_init
    ipc.o(i.rt_mutex_init) refers to ipc.o(i.rt_ipc_object_init) for rt_ipc_object_init
    ipc.o(i.rt_mutex_release) refers to thread.o(i.rt_thread_self) for rt_thread_self
    ipc.o(i.rt_mutex_release) refers to context_rvds.o(.text) for rt_hw_interrupt_disable
    ipc.o(i.rt_mutex_release) refers to thread.o(i.rt_thread_control) for rt_thread_control
    ipc.o(i.rt_mutex_release) refers to ipc.o(i.rt_list_isempty) for rt_list_isempty
    ipc.o(i.rt_mutex_release) refers to ipc.o(i.rt_ipc_list_resume) for rt_ipc_list_resume
    ipc.o(i.rt_mutex_release) refers to scheduler.o(i.rt_schedule) for rt_schedule
    ipc.o(i.rt_mutex_take) refers to thread.o(i.rt_thread_self) for rt_thread_self
    ipc.o(i.rt_mutex_take) refers to context_rvds.o(.text) for rt_hw_interrupt_disable
    ipc.o(i.rt_mutex_take) refers to thread.o(i.rt_thread_control) for rt_thread_control
    ipc.o(i.rt_mutex_take) refers to ipc.o(i.rt_ipc_list_suspend) for rt_ipc_list_suspend
    ipc.o(i.rt_mutex_take) refers to timer.o(i.rt_timer_control) for rt_timer_control
    ipc.o(i.rt_mutex_take) refers to timer.o(i.rt_timer_start) for rt_timer_start
    ipc.o(i.rt_mutex_take) refers to scheduler.o(i.rt_schedule) for rt_schedule
    ipc.o(i.rt_sem_control) refers to context_rvds.o(.text) for rt_hw_interrupt_disable
    ipc.o(i.rt_sem_control) refers to ipc.o(i.rt_ipc_list_resume_all) for rt_ipc_list_resume_all
    ipc.o(i.rt_sem_control) refers to scheduler.o(i.rt_schedule) for rt_schedule
    ipc.o(i.rt_sem_create) refers to object.o(i.rt_object_allocate) for rt_object_allocate
    ipc.o(i.rt_sem_create) refers to ipc.o(i.rt_ipc_object_init) for rt_ipc_object_init
    ipc.o(i.rt_sem_delete) refers to ipc.o(i.rt_ipc_list_resume_all) for rt_ipc_list_resume_all
    ipc.o(i.rt_sem_delete) refers to object.o(i.rt_object_delete) for rt_object_delete
    ipc.o(i.rt_sem_detach) refers to ipc.o(i.rt_ipc_list_resume_all) for rt_ipc_list_resume_all
    ipc.o(i.rt_sem_detach) refers to object.o(i.rt_object_detach) for rt_object_detach
    ipc.o(i.rt_sem_init) refers to object.o(i.rt_object_init) for rt_object_init
    ipc.o(i.rt_sem_init) refers to ipc.o(i.rt_ipc_object_init) for rt_ipc_object_init
    ipc.o(i.rt_sem_release) refers to context_rvds.o(.text) for rt_hw_interrupt_disable
    ipc.o(i.rt_sem_release) refers to ipc.o(i.rt_list_isempty) for rt_list_isempty
    ipc.o(i.rt_sem_release) refers to ipc.o(i.rt_ipc_list_resume) for rt_ipc_list_resume
    ipc.o(i.rt_sem_release) refers to scheduler.o(i.rt_schedule) for rt_schedule
    ipc.o(i.rt_sem_take) refers to context_rvds.o(.text) for rt_hw_interrupt_disable
    ipc.o(i.rt_sem_take) refers to thread.o(i.rt_thread_self) for rt_thread_self
    ipc.o(i.rt_sem_take) refers to ipc.o(i.rt_ipc_list_suspend) for rt_ipc_list_suspend
    ipc.o(i.rt_sem_take) refers to timer.o(i.rt_timer_control) for rt_timer_control
    ipc.o(i.rt_sem_take) refers to timer.o(i.rt_timer_start) for rt_timer_start
    ipc.o(i.rt_sem_take) refers to scheduler.o(i.rt_schedule) for rt_schedule
    ipc.o(i.rt_sem_trytake) refers to ipc.o(i.rt_sem_take) for rt_sem_take
    irq.o(i.rt_interrupt_enter) refers to context_rvds.o(.text) for rt_hw_interrupt_disable
    irq.o(i.rt_interrupt_enter) refers to irq.o(.data) for rt_interrupt_nest
    irq.o(i.rt_interrupt_get_nest) refers to irq.o(.data) for rt_interrupt_nest
    irq.o(i.rt_interrupt_leave) refers to context_rvds.o(.text) for rt_hw_interrupt_disable
    irq.o(i.rt_interrupt_leave) refers to irq.o(.data) for rt_interrupt_nest
    kservice.o(i.__rt_ffs) refers to kservice.o(.constdata) for __lowest_bit_bitmap
    kservice.o(i._rt_errno) refers to irq.o(i.rt_interrupt_get_nest) for rt_interrupt_get_nest
    kservice.o(i._rt_errno) refers to thread.o(i.rt_thread_self) for rt_thread_self
    kservice.o(i._rt_errno) refers to kservice.o(.data) for __rt_errno
    kservice.o(i.print_number) refers to kservice.o(.constdata) for large_digits
    kservice.o(i.rt_free_align) refers to mem.o(i.rt_free) for rt_free
    kservice.o(i.rt_get_errno) refers to irq.o(i.rt_interrupt_get_nest) for rt_interrupt_get_nest
    kservice.o(i.rt_get_errno) refers to thread.o(i.rt_thread_self) for rt_thread_self
    kservice.o(i.rt_get_errno) refers to kservice.o(.data) for __rt_errno
    kservice.o(i.rt_malloc_align) refers to mem.o(i.rt_malloc) for rt_malloc
    kservice.o(i.rt_set_errno) refers to irq.o(i.rt_interrupt_get_nest) for rt_interrupt_get_nest
    kservice.o(i.rt_set_errno) refers to thread.o(i.rt_thread_self) for rt_thread_self
    kservice.o(i.rt_set_errno) refers to kservice.o(.data) for __rt_errno
    kservice.o(i.rt_snprintf) refers to kservice.o(i.rt_vsnprintf) for rt_vsnprintf
    kservice.o(i.rt_sprintf) refers to kservice.o(i.rt_vsprintf) for rt_vsprintf
    kservice.o(i.rt_strdup) refers to kservice.o(i.rt_strlen) for rt_strlen
    kservice.o(i.rt_strdup) refers to mem.o(i.rt_malloc) for rt_malloc
    kservice.o(i.rt_strdup) refers to kservice.o(i.rt_memcpy) for rt_memcpy
    kservice.o(i.rt_strstr) refers to kservice.o(i.rt_strlen) for rt_strlen
    kservice.o(i.rt_strstr) refers to kservice.o(i.rt_memcmp) for rt_memcmp
    kservice.o(i.rt_vsnprintf) refers to kservice.o(i.skip_atoi) for skip_atoi
    kservice.o(i.rt_vsnprintf) refers to kservice.o(i.rt_strlen) for rt_strlen
    kservice.o(i.rt_vsnprintf) refers to kservice.o(i.print_number) for print_number
    kservice.o(i.rt_vsprintf) refers to kservice.o(i.rt_vsnprintf) for rt_vsnprintf
    mem.o(i.plug_holes) refers to mem.o(.data) for heap_ptr
    mem.o(i.rt_calloc) refers to mem.o(i.rt_malloc) for rt_malloc
    mem.o(i.rt_calloc) refers to kservice.o(i.rt_memset) for rt_memset
    mem.o(i.rt_free) refers to ipc.o(i.rt_sem_take) for rt_sem_take
    mem.o(i.rt_free) refers to mem.o(i.plug_holes) for plug_holes
    mem.o(i.rt_free) refers to ipc.o(i.rt_sem_release) for rt_sem_release
    mem.o(i.rt_free) refers to mem.o(.data) for heap_ptr
    mem.o(i.rt_free) refers to mem.o(.bss) for heap_sem
    mem.o(i.rt_malloc) refers to ipc.o(i.rt_sem_take) for rt_sem_take
    mem.o(i.rt_malloc) refers to ipc.o(i.rt_sem_release) for rt_sem_release
    mem.o(i.rt_malloc) refers to mem.o(.data) for mem_size_aligned
    mem.o(i.rt_malloc) refers to mem.o(.bss) for heap_sem
    mem.o(i.rt_memory_info) refers to mem.o(.data) for mem_size_aligned
    mem.o(i.rt_realloc) refers to mem.o(i.rt_free) for rt_free
    mem.o(i.rt_realloc) refers to mem.o(i.rt_malloc) for rt_malloc
    mem.o(i.rt_realloc) refers to ipc.o(i.rt_sem_take) for rt_sem_take
    mem.o(i.rt_realloc) refers to ipc.o(i.rt_sem_release) for rt_sem_release
    mem.o(i.rt_realloc) refers to mem.o(i.plug_holes) for plug_holes
    mem.o(i.rt_realloc) refers to kservice.o(i.rt_memcpy) for rt_memcpy
    mem.o(i.rt_realloc) refers to mem.o(.data) for mem_size_aligned
    mem.o(i.rt_realloc) refers to mem.o(.bss) for heap_sem
    mem.o(i.rt_system_heap_init) refers to ipc.o(i.rt_sem_init) for rt_sem_init
    mem.o(i.rt_system_heap_init) refers to mem.o(.data) for mem_size_aligned
    mem.o(i.rt_system_heap_init) refers to mem.o(.bss) for heap_sem
    object.o(i.rt_object_allocate) refers to object.o(i.rt_object_get_information) for rt_object_get_information
    object.o(i.rt_object_allocate) refers to mem.o(i.rt_malloc) for rt_malloc
    object.o(i.rt_object_allocate) refers to kservice.o(i.rt_strncpy) for rt_strncpy
    object.o(i.rt_object_allocate) refers to context_rvds.o(.text) for rt_hw_interrupt_disable
    object.o(i.rt_object_allocate) refers to object.o(i.rt_list_insert_after) for rt_list_insert_after
    object.o(i.rt_object_delete) refers to context_rvds.o(.text) for rt_hw_interrupt_disable
    object.o(i.rt_object_delete) refers to object.o(i.rt_list_remove) for rt_list_remove
    object.o(i.rt_object_delete) refers to mem.o(i.rt_free) for rt_free
    object.o(i.rt_object_detach) refers to context_rvds.o(.text) for rt_hw_interrupt_disable
    object.o(i.rt_object_detach) refers to object.o(i.rt_list_remove) for rt_list_remove
    object.o(i.rt_object_find) refers to scheduler.o(i.rt_enter_critical) for rt_enter_critical
    object.o(i.rt_object_find) refers to object.o(i.rt_object_get_information) for rt_object_get_information
    object.o(i.rt_object_find) refers to kservice.o(i.rt_strncmp) for rt_strncmp
    object.o(i.rt_object_find) refers to scheduler.o(i.rt_exit_critical) for rt_exit_critical
    object.o(i.rt_object_get_information) refers to object.o(.data) for rt_object_container
    object.o(i.rt_object_init) refers to object.o(i.rt_object_get_information) for rt_object_get_information
    object.o(i.rt_object_init) refers to kservice.o(i.rt_strncpy) for rt_strncpy
    object.o(i.rt_object_init) refers to context_rvds.o(.text) for rt_hw_interrupt_disable
    object.o(i.rt_object_init) refers to object.o(i.rt_list_insert_after) for rt_list_insert_after
    scheduler.o(i.rt_critical_level) refers to scheduler.o(.data) for rt_scheduler_lock_nest
    scheduler.o(i.rt_enter_critical) refers to context_rvds.o(.text) for rt_hw_interrupt_disable
    scheduler.o(i.rt_enter_critical) refers to scheduler.o(.data) for rt_scheduler_lock_nest
    scheduler.o(i.rt_exit_critical) refers to context_rvds.o(.text) for rt_hw_interrupt_disable
    scheduler.o(i.rt_exit_critical) refers to scheduler.o(i.rt_schedule) for rt_schedule
    scheduler.o(i.rt_exit_critical) refers to scheduler.o(.data) for rt_scheduler_lock_nest
    scheduler.o(i.rt_schedule) refers to context_rvds.o(.text) for rt_hw_interrupt_disable
    scheduler.o(i.rt_schedule) refers to kservice.o(i.__rt_ffs) for __rt_ffs
    scheduler.o(i.rt_schedule) refers to scheduler.o(.data) for rt_scheduler_lock_nest
    scheduler.o(i.rt_schedule) refers to scheduler.o(.bss) for rt_thread_priority_table
    scheduler.o(i.rt_schedule) refers to irq.o(.data) for rt_interrupt_nest
    scheduler.o(i.rt_schedule_insert_thread) refers to context_rvds.o(.text) for rt_hw_interrupt_disable
    scheduler.o(i.rt_schedule_insert_thread) refers to scheduler.o(.bss) for rt_thread_priority_table
    scheduler.o(i.rt_schedule_insert_thread) refers to scheduler.o(.data) for rt_thread_ready_priority_group
    scheduler.o(i.rt_schedule_remove_thread) refers to context_rvds.o(.text) for rt_hw_interrupt_disable
    scheduler.o(i.rt_schedule_remove_thread) refers to scheduler.o(.bss) for rt_thread_priority_table
    scheduler.o(i.rt_schedule_remove_thread) refers to scheduler.o(.data) for rt_thread_ready_priority_group
    scheduler.o(i.rt_system_scheduler_init) refers to scheduler.o(i.rt_list_init) for rt_list_init
    scheduler.o(i.rt_system_scheduler_init) refers to scheduler.o(.data) for rt_scheduler_lock_nest
    scheduler.o(i.rt_system_scheduler_init) refers to scheduler.o(.bss) for rt_thread_priority_table
    scheduler.o(i.rt_system_scheduler_start) refers to kservice.o(i.__rt_ffs) for __rt_ffs
    scheduler.o(i.rt_system_scheduler_start) refers to context_rvds.o(.text) for rt_hw_context_switch_to
    scheduler.o(i.rt_system_scheduler_start) refers to scheduler.o(.data) for rt_thread_ready_priority_group
    scheduler.o(i.rt_system_scheduler_start) refers to scheduler.o(.bss) for rt_thread_priority_table
    thread.o(i._rt_thread_init) refers to kservice.o(i.rt_memset) for rt_memset
    thread.o(i._rt_thread_init) refers to cpuport.o(i.rt_hw_stack_init) for rt_hw_stack_init
    thread.o(i._rt_thread_init) refers to timer.o(i.rt_timer_init) for rt_timer_init
    thread.o(i._rt_thread_init) refers to thread.o(i.rt_thread_exit) for rt_thread_exit
    thread.o(i._rt_thread_init) refers to thread.o(i.rt_thread_timeout) for rt_thread_timeout
    thread.o(i.rt_thread_control) refers to context_rvds.o(.text) for rt_hw_interrupt_disable
    thread.o(i.rt_thread_control) refers to scheduler.o(i.rt_schedule_remove_thread) for rt_schedule_remove_thread
    thread.o(i.rt_thread_control) refers to scheduler.o(i.rt_schedule_insert_thread) for rt_schedule_insert_thread
    thread.o(i.rt_thread_control) refers to thread.o(i.rt_thread_startup) for rt_thread_startup
    thread.o(i.rt_thread_control) refers to thread.o(i.rt_thread_delete) for rt_thread_delete
    thread.o(i.rt_thread_create) refers to object.o(i.rt_object_allocate) for rt_object_allocate
    thread.o(i.rt_thread_create) refers to mem.o(i.rt_malloc) for rt_malloc
    thread.o(i.rt_thread_create) refers to object.o(i.rt_object_delete) for rt_object_delete
    thread.o(i.rt_thread_create) refers to thread.o(i._rt_thread_init) for _rt_thread_init
    thread.o(i.rt_thread_delay) refers to thread.o(i.rt_thread_sleep) for rt_thread_sleep
    thread.o(i.rt_thread_delete) refers to scheduler.o(i.rt_schedule_remove_thread) for rt_schedule_remove_thread
    thread.o(i.rt_thread_delete) refers to timer.o(i.rt_timer_detach) for rt_timer_detach
    thread.o(i.rt_thread_delete) refers to context_rvds.o(.text) for rt_hw_interrupt_disable
    thread.o(i.rt_thread_delete) refers to thread.o(i.rt_list_insert_after) for rt_list_insert_after
    thread.o(i.rt_thread_delete) refers to scheduler.o(.data) for rt_thread_defunct
    thread.o(i.rt_thread_detach) refers to scheduler.o(i.rt_schedule_remove_thread) for rt_schedule_remove_thread
    thread.o(i.rt_thread_detach) refers to timer.o(i.rt_timer_detach) for rt_timer_detach
    thread.o(i.rt_thread_detach) refers to object.o(i.rt_object_detach) for rt_object_detach
    thread.o(i.rt_thread_detach) refers to context_rvds.o(.text) for rt_hw_interrupt_disable
    thread.o(i.rt_thread_detach) refers to thread.o(i.rt_list_insert_after) for rt_list_insert_after
    thread.o(i.rt_thread_detach) refers to scheduler.o(.data) for rt_thread_defunct
    thread.o(i.rt_thread_exit) refers to context_rvds.o(.text) for rt_hw_interrupt_disable
    thread.o(i.rt_thread_exit) refers to scheduler.o(i.rt_schedule_remove_thread) for rt_schedule_remove_thread
    thread.o(i.rt_thread_exit) refers to timer.o(i.rt_timer_detach) for rt_timer_detach
    thread.o(i.rt_thread_exit) refers to object.o(i.rt_object_is_systemobject) for rt_object_is_systemobject
    thread.o(i.rt_thread_exit) refers to object.o(i.rt_object_detach) for rt_object_detach
    thread.o(i.rt_thread_exit) refers to thread.o(i.rt_list_insert_after) for rt_list_insert_after
    thread.o(i.rt_thread_exit) refers to scheduler.o(i.rt_schedule) for rt_schedule
    thread.o(i.rt_thread_exit) refers to scheduler.o(.data) for rt_current_thread
    thread.o(i.rt_thread_find) refers to thread.o(i.rt_thread_self) for rt_thread_self
    thread.o(i.rt_thread_find) refers to scheduler.o(i.rt_enter_critical) for rt_enter_critical
    thread.o(i.rt_thread_find) refers to object.o(i.rt_object_get_information) for rt_object_get_information
    thread.o(i.rt_thread_find) refers to kservice.o(i.rt_strncmp) for rt_strncmp
    thread.o(i.rt_thread_find) refers to scheduler.o(i.rt_exit_critical) for rt_exit_critical
    thread.o(i.rt_thread_init) refers to object.o(i.rt_object_init) for rt_object_init
    thread.o(i.rt_thread_init) refers to thread.o(i._rt_thread_init) for _rt_thread_init
    thread.o(i.rt_thread_resume) refers to context_rvds.o(.text) for rt_hw_interrupt_disable
    thread.o(i.rt_thread_resume) refers to thread.o(i.rt_list_remove) for rt_list_remove
    thread.o(i.rt_thread_resume) refers to timer.o(i.rt_timer_stop) for rt_timer_stop
    thread.o(i.rt_thread_resume) refers to scheduler.o(i.rt_schedule_insert_thread) for rt_schedule_insert_thread
    thread.o(i.rt_thread_self) refers to scheduler.o(.data) for rt_current_thread
    thread.o(i.rt_thread_sleep) refers to context_rvds.o(.text) for rt_hw_interrupt_disable
    thread.o(i.rt_thread_sleep) refers to thread.o(i.rt_thread_suspend) for rt_thread_suspend
    thread.o(i.rt_thread_sleep) refers to timer.o(i.rt_timer_control) for rt_timer_control
    thread.o(i.rt_thread_sleep) refers to timer.o(i.rt_timer_start) for rt_timer_start
    thread.o(i.rt_thread_sleep) refers to scheduler.o(i.rt_schedule) for rt_schedule
    thread.o(i.rt_thread_sleep) refers to scheduler.o(.data) for rt_current_thread
    thread.o(i.rt_thread_startup) refers to thread.o(i.rt_thread_resume) for rt_thread_resume
    thread.o(i.rt_thread_startup) refers to thread.o(i.rt_thread_self) for rt_thread_self
    thread.o(i.rt_thread_startup) refers to scheduler.o(i.rt_schedule) for rt_schedule
    thread.o(i.rt_thread_suspend) refers to context_rvds.o(.text) for rt_hw_interrupt_disable
    thread.o(i.rt_thread_suspend) refers to scheduler.o(i.rt_schedule_remove_thread) for rt_schedule_remove_thread
    thread.o(i.rt_thread_suspend) refers to timer.o(i.rt_timer_stop) for rt_timer_stop
    thread.o(i.rt_thread_timeout) refers to thread.o(i.rt_list_remove) for rt_list_remove
    thread.o(i.rt_thread_timeout) refers to scheduler.o(i.rt_schedule_insert_thread) for rt_schedule_insert_thread
    thread.o(i.rt_thread_timeout) refers to scheduler.o(i.rt_schedule) for rt_schedule
    thread.o(i.rt_thread_yield) refers to context_rvds.o(.text) for rt_hw_interrupt_disable
    thread.o(i.rt_thread_yield) refers to thread.o(i.rt_list_remove) for rt_list_remove
    thread.o(i.rt_thread_yield) refers to scheduler.o(i.rt_schedule) for rt_schedule
    thread.o(i.rt_thread_yield) refers to scheduler.o(.data) for rt_current_thread
    thread.o(i.rt_thread_yield) refers to scheduler.o(.bss) for rt_thread_priority_table
    timer.o(i._rt_timer_init) refers to timer.o(i.rt_list_init) for rt_list_init
    timer.o(i.rt_system_timer_init) refers to timer.o(i.rt_list_init) for rt_list_init
    timer.o(i.rt_system_timer_init) refers to timer.o(.data) for rt_timer_list
    timer.o(i.rt_timer_check) refers to clock.o(i.rt_tick_get) for rt_tick_get
    timer.o(i.rt_timer_check) refers to context_rvds.o(.text) for rt_hw_interrupt_disable
    timer.o(i.rt_timer_check) refers to timer.o(i._rt_timer_remove) for _rt_timer_remove
    timer.o(i.rt_timer_check) refers to timer.o(i.rt_timer_start) for rt_timer_start
    timer.o(i.rt_timer_check) refers to timer.o(i.rt_list_isempty) for rt_list_isempty
    timer.o(i.rt_timer_check) refers to timer.o(.data) for rt_timer_list
    timer.o(i.rt_timer_create) refers to object.o(i.rt_object_allocate) for rt_object_allocate
    timer.o(i.rt_timer_create) refers to timer.o(i._rt_timer_init) for _rt_timer_init
    timer.o(i.rt_timer_delete) refers to context_rvds.o(.text) for rt_hw_interrupt_disable
    timer.o(i.rt_timer_delete) refers to timer.o(i._rt_timer_remove) for _rt_timer_remove
    timer.o(i.rt_timer_delete) refers to object.o(i.rt_object_delete) for rt_object_delete
    timer.o(i.rt_timer_detach) refers to context_rvds.o(.text) for rt_hw_interrupt_disable
    timer.o(i.rt_timer_detach) refers to timer.o(i._rt_timer_remove) for _rt_timer_remove
    timer.o(i.rt_timer_detach) refers to object.o(i.rt_object_detach) for rt_object_detach
    timer.o(i.rt_timer_init) refers to object.o(i.rt_object_init) for rt_object_init
    timer.o(i.rt_timer_init) refers to timer.o(i._rt_timer_init) for _rt_timer_init
    timer.o(i.rt_timer_list_next_timeout) refers to timer.o(i.rt_list_isempty) for rt_list_isempty
    timer.o(i.rt_timer_next_timeout_tick) refers to timer.o(i.rt_timer_list_next_timeout) for rt_timer_list_next_timeout
    timer.o(i.rt_timer_next_timeout_tick) refers to timer.o(.data) for rt_timer_list
    timer.o(i.rt_timer_start) refers to context_rvds.o(.text) for rt_hw_interrupt_disable
    timer.o(i.rt_timer_start) refers to timer.o(i._rt_timer_remove) for _rt_timer_remove
    timer.o(i.rt_timer_start) refers to clock.o(i.rt_tick_get) for rt_tick_get
    timer.o(i.rt_timer_start) refers to timer.o(i.rt_list_insert_after) for rt_list_insert_after
    timer.o(i.rt_timer_start) refers to timer.o(.data) for rt_timer_list
    timer.o(i.rt_timer_stop) refers to context_rvds.o(.text) for rt_hw_interrupt_disable
    timer.o(i.rt_timer_stop) refers to timer.o(i._rt_timer_remove) for _rt_timer_remove
    context_rvds.o(.text) refers to cpuport.o(i.rt_hw_hard_fault_exception) for rt_hw_hard_fault_exception
    context_rvds.o(.text) refers to cpuport.o(.data) for rt_thread_switch_interrupt_flag
    ringbuffer.o(i.rt_ringbuffer_create) refers to malloc.o(i.malloc) for malloc
    ringbuffer.o(i.rt_ringbuffer_create) refers to malloc.o(i.free) for free
    ringbuffer.o(i.rt_ringbuffer_create) refers to ringbuffer.o(i.rt_ringbuffer_init) for rt_ringbuffer_init
    ringbuffer.o(i.rt_ringbuffer_data_len) refers to ringbuffer.o(i.rt_ringbuffer_status) for rt_ringbuffer_status
    ringbuffer.o(i.rt_ringbuffer_destroy) refers to malloc.o(i.free) for free
    ringbuffer.o(i.rt_ringbuffer_get) refers to ringbuffer.o(i.rt_ringbuffer_data_len) for rt_ringbuffer_data_len
    ringbuffer.o(i.rt_ringbuffer_get) refers to memcpya.o(.text) for __aeabi_memcpy
    ringbuffer.o(i.rt_ringbuffer_getchar) refers to ringbuffer.o(i.rt_ringbuffer_data_len) for rt_ringbuffer_data_len
    ringbuffer.o(i.rt_ringbuffer_put) refers to ringbuffer.o(i.rt_ringbuffer_data_len) for rt_ringbuffer_data_len
    ringbuffer.o(i.rt_ringbuffer_put) refers to memcpya.o(.text) for __aeabi_memcpy
    ringbuffer.o(i.rt_ringbuffer_put_force) refers to ringbuffer.o(i.rt_ringbuffer_data_len) for rt_ringbuffer_data_len
    ringbuffer.o(i.rt_ringbuffer_put_force) refers to memcpya.o(.text) for __aeabi_memcpy
    ringbuffer.o(i.rt_ringbuffer_putchar) refers to ringbuffer.o(i.rt_ringbuffer_data_len) for rt_ringbuffer_data_len
    ringbuffer.o(i.rt_ringbuffer_putchar_force) refers to ringbuffer.o(i.rt_ringbuffer_status) for rt_ringbuffer_status
    mqttconnectclient.o(i.MQTTDeserialize_connack) refers to mqttpacket.o(i.readChar) for readChar
    mqttconnectclient.o(i.MQTTDeserialize_connack) refers to mqttpacket.o(i.MQTTPacket_decodeBuf) for MQTTPacket_decodeBuf
    mqttconnectclient.o(i.MQTTSerialize_connect) refers to mqttconnectclient.o(i.MQTTSerialize_connectLength) for MQTTSerialize_connectLength
    mqttconnectclient.o(i.MQTTSerialize_connect) refers to mqttpacket.o(i.MQTTPacket_len) for MQTTPacket_len
    mqttconnectclient.o(i.MQTTSerialize_connect) refers to mqttpacket.o(i.writeChar) for writeChar
    mqttconnectclient.o(i.MQTTSerialize_connect) refers to mqttpacket.o(i.MQTTPacket_encode) for MQTTPacket_encode
    mqttconnectclient.o(i.MQTTSerialize_connect) refers to mqttpacket.o(i.writeCString) for writeCString
    mqttconnectclient.o(i.MQTTSerialize_connect) refers to mqttpacket.o(i.writeInt) for writeInt
    mqttconnectclient.o(i.MQTTSerialize_connect) refers to mqttpacket.o(i.writeMQTTString) for writeMQTTString
    mqttconnectclient.o(i.MQTTSerialize_connectLength) refers to mqttpacket.o(i.MQTTstrlen) for MQTTstrlen
    mqttconnectclient.o(i.MQTTSerialize_disconnect) refers to mqttconnectclient.o(i.MQTTSerialize_zero) for MQTTSerialize_zero
    mqttconnectclient.o(i.MQTTSerialize_pingreq) refers to mqttconnectclient.o(i.MQTTSerialize_zero) for MQTTSerialize_zero
    mqttconnectclient.o(i.MQTTSerialize_zero) refers to mqttpacket.o(i.writeChar) for writeChar
    mqttconnectclient.o(i.MQTTSerialize_zero) refers to mqttpacket.o(i.MQTTPacket_encode) for MQTTPacket_encode
    mqttconnectserver.o(i.MQTTDeserialize_connect) refers to mqttpacket.o(i.readChar) for readChar
    mqttconnectserver.o(i.MQTTDeserialize_connect) refers to mqttpacket.o(i.MQTTPacket_decodeBuf) for MQTTPacket_decodeBuf
    mqttconnectserver.o(i.MQTTDeserialize_connect) refers to mqttpacket.o(i.readMQTTLenString) for readMQTTLenString
    mqttconnectserver.o(i.MQTTDeserialize_connect) refers to mqttconnectserver.o(i.MQTTPacket_checkVersion) for MQTTPacket_checkVersion
    mqttconnectserver.o(i.MQTTDeserialize_connect) refers to mqttpacket.o(i.readInt) for readInt
    mqttconnectserver.o(i.MQTTPacket_checkVersion) refers to memcmp.o(.text) for memcmp
    mqttconnectserver.o(i.MQTTSerialize_connack) refers to mqttpacket.o(i.writeChar) for writeChar
    mqttconnectserver.o(i.MQTTSerialize_connack) refers to mqttpacket.o(i.MQTTPacket_encode) for MQTTPacket_encode
    mqttdeserializepublish.o(i.MQTTDeserialize_ack) refers to mqttpacket.o(i.readChar) for readChar
    mqttdeserializepublish.o(i.MQTTDeserialize_ack) refers to mqttpacket.o(i.MQTTPacket_decodeBuf) for MQTTPacket_decodeBuf
    mqttdeserializepublish.o(i.MQTTDeserialize_ack) refers to mqttpacket.o(i.readInt) for readInt
    mqttdeserializepublish.o(i.MQTTDeserialize_publish) refers to mqttpacket.o(i.readChar) for readChar
    mqttdeserializepublish.o(i.MQTTDeserialize_publish) refers to mqttpacket.o(i.MQTTPacket_decodeBuf) for MQTTPacket_decodeBuf
    mqttdeserializepublish.o(i.MQTTDeserialize_publish) refers to mqttpacket.o(i.readMQTTLenString) for readMQTTLenString
    mqttdeserializepublish.o(i.MQTTDeserialize_publish) refers to mqttpacket.o(i.readInt) for readInt
    mqttformat.o(i.MQTTPacket_getName) refers to mqttformat.o(.data) for MQTTPacket_names
    mqttformat.o(i.MQTTStringFormat_ack) refers to printf8.o(i.__0snprintf$8) for __2snprintf
    mqttformat.o(i.MQTTStringFormat_ack) refers to mqttformat.o(.data) for MQTTPacket_names
    mqttformat.o(i.MQTTStringFormat_connack) refers to printf8.o(i.__0snprintf$8) for __2snprintf
    mqttformat.o(i.MQTTStringFormat_connect) refers to printf8.o(i.__0snprintf$8) for __2snprintf
    mqttformat.o(i.MQTTStringFormat_connect) refers to mqttformat.o(.conststring) for .conststring
    mqttformat.o(i.MQTTStringFormat_publish) refers to printf8.o(i.__0snprintf$8) for __2snprintf
    mqttformat.o(i.MQTTStringFormat_publish) refers to mqttformat.o(.conststring) for .conststring
    mqttformat.o(i.MQTTStringFormat_suback) refers to printf8.o(i.__0snprintf$8) for __2snprintf
    mqttformat.o(i.MQTTStringFormat_subscribe) refers to printf8.o(i.__0snprintf$8) for __2snprintf
    mqttformat.o(i.MQTTStringFormat_unsubscribe) refers to printf8.o(i.__0snprintf$8) for __2snprintf
    mqttformat.o(.data) refers to mqttformat.o(.conststring) for .conststring
    mqttpacket.o(i.MQTTPacket_decodeBuf) refers to mqttpacket.o(i.MQTTPacket_decode) for MQTTPacket_decode
    mqttpacket.o(i.MQTTPacket_decodeBuf) refers to mqttpacket.o(.data) for bufptr
    mqttpacket.o(i.MQTTPacket_decodeBuf) refers to mqttpacket.o(i.bufchar) for bufchar
    mqttpacket.o(i.MQTTPacket_equals) refers to strlen.o(.text) for strlen
    mqttpacket.o(i.MQTTPacket_equals) refers to strncmp.o(.text) for strncmp
    mqttpacket.o(i.MQTTPacket_read) refers to mqttpacket.o(i.MQTTPacket_decode) for MQTTPacket_decode
    mqttpacket.o(i.MQTTPacket_read) refers to mqttpacket.o(i.MQTTPacket_encode) for MQTTPacket_encode
    mqttpacket.o(i.MQTTPacket_readnb) refers to mqttpacket.o(i.MQTTPacket_decodenb) for MQTTPacket_decodenb
    mqttpacket.o(i.MQTTPacket_readnb) refers to mqttpacket.o(i.MQTTPacket_encode) for MQTTPacket_encode
    mqttpacket.o(i.MQTTstrlen) refers to strlen.o(.text) for strlen
    mqttpacket.o(i.bufchar) refers to mqttpacket.o(.data) for bufptr
    mqttpacket.o(i.readMQTTLenString) refers to mqttpacket.o(i.readInt) for readInt
    mqttpacket.o(i.writeCString) refers to strlen.o(.text) for strlen
    mqttpacket.o(i.writeCString) refers to mqttpacket.o(i.writeInt) for writeInt
    mqttpacket.o(i.writeCString) refers to memcpya.o(.text) for __aeabi_memcpy
    mqttpacket.o(i.writeMQTTString) refers to mqttpacket.o(i.writeInt) for writeInt
    mqttpacket.o(i.writeMQTTString) refers to memcpya.o(.text) for __aeabi_memcpy
    mqttpacket.o(i.writeMQTTString) refers to mqttpacket.o(i.writeCString) for writeCString
    mqttserializepublish.o(i.MQTTSerialize_ack) refers to mqttpacket.o(i.writeChar) for writeChar
    mqttserializepublish.o(i.MQTTSerialize_ack) refers to mqttpacket.o(i.MQTTPacket_encode) for MQTTPacket_encode
    mqttserializepublish.o(i.MQTTSerialize_ack) refers to mqttpacket.o(i.writeInt) for writeInt
    mqttserializepublish.o(i.MQTTSerialize_puback) refers to mqttserializepublish.o(i.MQTTSerialize_ack) for MQTTSerialize_ack
    mqttserializepublish.o(i.MQTTSerialize_pubcomp) refers to mqttserializepublish.o(i.MQTTSerialize_ack) for MQTTSerialize_ack
    mqttserializepublish.o(i.MQTTSerialize_publish) refers to mqttserializepublish.o(i.MQTTSerialize_publishLength) for MQTTSerialize_publishLength
    mqttserializepublish.o(i.MQTTSerialize_publish) refers to mqttpacket.o(i.MQTTPacket_len) for MQTTPacket_len
    mqttserializepublish.o(i.MQTTSerialize_publish) refers to mqttpacket.o(i.writeChar) for writeChar
    mqttserializepublish.o(i.MQTTSerialize_publish) refers to mqttpacket.o(i.MQTTPacket_encode) for MQTTPacket_encode
    mqttserializepublish.o(i.MQTTSerialize_publish) refers to mqttpacket.o(i.writeMQTTString) for writeMQTTString
    mqttserializepublish.o(i.MQTTSerialize_publish) refers to mqttpacket.o(i.writeInt) for writeInt
    mqttserializepublish.o(i.MQTTSerialize_publish) refers to memcpya.o(.text) for __aeabi_memcpy
    mqttserializepublish.o(i.MQTTSerialize_publishLength) refers to mqttpacket.o(i.MQTTstrlen) for MQTTstrlen
    mqttserializepublish.o(i.MQTTSerialize_pubrel) refers to mqttserializepublish.o(i.MQTTSerialize_ack) for MQTTSerialize_ack
    mqttsubscribeclient.o(i.MQTTDeserialize_suback) refers to mqttpacket.o(i.readChar) for readChar
    mqttsubscribeclient.o(i.MQTTDeserialize_suback) refers to mqttpacket.o(i.MQTTPacket_decodeBuf) for MQTTPacket_decodeBuf
    mqttsubscribeclient.o(i.MQTTDeserialize_suback) refers to mqttpacket.o(i.readInt) for readInt
    mqttsubscribeclient.o(i.MQTTSerialize_subscribe) refers to mqttsubscribeclient.o(i.MQTTSerialize_subscribeLength) for MQTTSerialize_subscribeLength
    mqttsubscribeclient.o(i.MQTTSerialize_subscribe) refers to mqttpacket.o(i.MQTTPacket_len) for MQTTPacket_len
    mqttsubscribeclient.o(i.MQTTSerialize_subscribe) refers to mqttpacket.o(i.writeChar) for writeChar
    mqttsubscribeclient.o(i.MQTTSerialize_subscribe) refers to mqttpacket.o(i.MQTTPacket_encode) for MQTTPacket_encode
    mqttsubscribeclient.o(i.MQTTSerialize_subscribe) refers to mqttpacket.o(i.writeInt) for writeInt
    mqttsubscribeclient.o(i.MQTTSerialize_subscribe) refers to mqttpacket.o(i.writeMQTTString) for writeMQTTString
    mqttsubscribeclient.o(i.MQTTSerialize_subscribeLength) refers to mqttpacket.o(i.MQTTstrlen) for MQTTstrlen
    mqttsubscribeserver.o(i.MQTTDeserialize_subscribe) refers to mqttpacket.o(i.readChar) for readChar
    mqttsubscribeserver.o(i.MQTTDeserialize_subscribe) refers to mqttpacket.o(i.MQTTPacket_decodeBuf) for MQTTPacket_decodeBuf
    mqttsubscribeserver.o(i.MQTTDeserialize_subscribe) refers to mqttpacket.o(i.readInt) for readInt
    mqttsubscribeserver.o(i.MQTTDeserialize_subscribe) refers to mqttpacket.o(i.readMQTTLenString) for readMQTTLenString
    mqttsubscribeserver.o(i.MQTTSerialize_suback) refers to mqttpacket.o(i.writeChar) for writeChar
    mqttsubscribeserver.o(i.MQTTSerialize_suback) refers to mqttpacket.o(i.MQTTPacket_encode) for MQTTPacket_encode
    mqttsubscribeserver.o(i.MQTTSerialize_suback) refers to mqttpacket.o(i.writeInt) for writeInt
    mqttunsubscribeclient.o(i.MQTTDeserialize_unsuback) refers to mqttdeserializepublish.o(i.MQTTDeserialize_ack) for MQTTDeserialize_ack
    mqttunsubscribeclient.o(i.MQTTSerialize_unsubscribe) refers to mqttunsubscribeclient.o(i.MQTTSerialize_unsubscribeLength) for MQTTSerialize_unsubscribeLength
    mqttunsubscribeclient.o(i.MQTTSerialize_unsubscribe) refers to mqttpacket.o(i.MQTTPacket_len) for MQTTPacket_len
    mqttunsubscribeclient.o(i.MQTTSerialize_unsubscribe) refers to mqttpacket.o(i.writeChar) for writeChar
    mqttunsubscribeclient.o(i.MQTTSerialize_unsubscribe) refers to mqttpacket.o(i.MQTTPacket_encode) for MQTTPacket_encode
    mqttunsubscribeclient.o(i.MQTTSerialize_unsubscribe) refers to mqttpacket.o(i.writeInt) for writeInt
    mqttunsubscribeclient.o(i.MQTTSerialize_unsubscribe) refers to mqttpacket.o(i.writeMQTTString) for writeMQTTString
    mqttunsubscribeclient.o(i.MQTTSerialize_unsubscribeLength) refers to mqttpacket.o(i.MQTTstrlen) for MQTTstrlen
    mqttunsubscribeserver.o(i.MQTTDeserialize_unsubscribe) refers to mqttpacket.o(i.readChar) for readChar
    mqttunsubscribeserver.o(i.MQTTDeserialize_unsubscribe) refers to mqttpacket.o(i.MQTTPacket_decodeBuf) for MQTTPacket_decodeBuf
    mqttunsubscribeserver.o(i.MQTTDeserialize_unsubscribe) refers to mqttpacket.o(i.readInt) for readInt
    mqttunsubscribeserver.o(i.MQTTDeserialize_unsubscribe) refers to mqttpacket.o(i.readMQTTLenString) for readMQTTLenString
    mqttunsubscribeserver.o(i.MQTTSerialize_unsuback) refers to mqttpacket.o(i.writeChar) for writeChar
    mqttunsubscribeserver.o(i.MQTTSerialize_unsuback) refers to mqttpacket.o(i.MQTTPacket_encode) for MQTTPacket_encode
    mqttunsubscribeserver.o(i.MQTTSerialize_unsuback) refers to mqttpacket.o(i.writeInt) for writeInt
    hal_sx1278.o(i.hal_sx1278_read_addr) refers to hal_sx1278.o(i.hal_sx1278_read_buffer) for hal_sx1278_read_buffer
    hal_sx1278.o(i.hal_sx1278_read_buffer) refers to hal_sx1278.o(i.hal_sx1278_spi_rw_byte) for hal_sx1278_spi_rw_byte
    hal_sx1278.o(i.hal_sx1278_read_fifo) refers to hal_sx1278.o(i.hal_sx1278_read_buffer) for hal_sx1278_read_buffer
    hal_sx1278.o(i.hal_sx1278_write_addr) refers to hal_sx1278.o(i.hal_sx1278_write_buffer) for hal_sx1278_write_buffer
    hal_sx1278.o(i.hal_sx1278_write_buffer) refers to hal_sx1278.o(i.hal_sx1278_spi_rw_byte) for hal_sx1278_spi_rw_byte
    hal_sx1278.o(i.hal_sx1278_write_fifo) refers to hal_sx1278.o(i.hal_sx1278_write_buffer) for hal_sx1278_write_buffer
    drv_sx1278.o(i.drv_sx1278_cad_check) refers to hal_sx1278.o(i.hal_sx1278_read_addr) for hal_sx1278_read_addr
    drv_sx1278.o(i.drv_sx1278_cad_check) refers to printf8.o(i.__0printf$8) for __2printf
    drv_sx1278.o(i.drv_sx1278_cad_check) refers to hal_sx1278.o(i.hal_sx1278_write_addr) for hal_sx1278_write_addr
    drv_sx1278.o(i.drv_sx1278_cad_init) refers to drv_sx1278.o(i.drv_sx1278_set_op_mode) for drv_sx1278_set_op_mode
    drv_sx1278.o(i.drv_sx1278_cad_init) refers to hal_sx1278.o(i.hal_sx1278_write_addr) for hal_sx1278_write_addr
    drv_sx1278.o(i.drv_sx1278_calcu_air_time) refers to drv_sx1278.o(i.bsp_pow2) for bsp_pow2
    drv_sx1278.o(i.drv_sx1278_calcu_air_time) refers to ffltui.o(.text) for __aeabi_ui2f
    drv_sx1278.o(i.drv_sx1278_calcu_air_time) refers to fmul.o(.text) for __aeabi_fmul
    drv_sx1278.o(i.drv_sx1278_calcu_air_time) refers to fdiv.o(.text) for __aeabi_fdiv
    drv_sx1278.o(i.drv_sx1278_calcu_air_time) refers to dflti.o(.text) for __aeabi_i2d
    drv_sx1278.o(i.drv_sx1278_calcu_air_time) refers to dadd.o(.text) for __aeabi_dadd
    drv_sx1278.o(i.drv_sx1278_calcu_air_time) refers to dfixui.o(.text) for __aeabi_d2uiz
    drv_sx1278.o(i.drv_sx1278_calcu_air_time) refers to ffixui.o(.text) for __aeabi_f2uiz
    drv_sx1278.o(i.drv_sx1278_get_rf_freq) refers to hal_sx1278.o(i.hal_sx1278_read_addr) for hal_sx1278_read_addr
    drv_sx1278.o(i.drv_sx1278_get_version) refers to hal_sx1278.o(i.hal_sx1278_read_addr) for hal_sx1278_read_addr
    drv_sx1278.o(i.drv_sx1278_init) refers to hal_sx1278.o(i.hal_sx1278_rst) for hal_sx1278_rst
    drv_sx1278.o(i.drv_sx1278_init) refers to drv_sx1278.o(i.drv_sx1278_set_on) for drv_sx1278_set_on
    drv_sx1278.o(i.drv_sx1278_init) refers to drv_sx1278.o(i.drv_sx1278_set_default_param) for drv_sx1278_set_default_param
    drv_sx1278.o(i.drv_sx1278_init) refers to drv_sx1278.o(i.drv_sx1278_get_version) for drv_sx1278_get_version
    drv_sx1278.o(i.drv_sx1278_init) refers to printf8.o(i.__0printf$8) for __2printf
    drv_sx1278.o(i.drv_sx1278_read_rssi) refers to hal_sx1278.o(i.hal_sx1278_read_addr) for hal_sx1278_read_addr
    drv_sx1278.o(i.drv_sx1278_read_rssi) refers to drv_sx1278.o(i.drv_sx1278_get_rf_freq) for drv_sx1278_get_rf_freq
    drv_sx1278.o(i.drv_sx1278_recv_check) refers to hal_sx1278.o(i.hal_sx1278_read_addr) for hal_sx1278_read_addr
    drv_sx1278.o(i.drv_sx1278_recv_check) refers to hal_sx1278.o(i.hal_sx1278_write_addr) for hal_sx1278_write_addr
    drv_sx1278.o(i.drv_sx1278_recv_check) refers to hal_sx1278.o(i.hal_sx1278_read_fifo) for hal_sx1278_read_fifo
    drv_sx1278.o(i.drv_sx1278_recv_init) refers to drv_sx1278.o(i.drv_sx1278_set_op_mode) for drv_sx1278_set_op_mode
    drv_sx1278.o(i.drv_sx1278_recv_init) refers to hal_sx1278.o(i.hal_sx1278_write_addr) for hal_sx1278_write_addr
    drv_sx1278.o(i.drv_sx1278_send) refers to drv_sx1278.o(i.drv_sx1278_set_op_mode) for drv_sx1278_set_op_mode
    drv_sx1278.o(i.drv_sx1278_send) refers to printf8.o(i.__0printf$8) for __2printf
    drv_sx1278.o(i.drv_sx1278_send) refers to hal_sx1278.o(i.hal_sx1278_write_addr) for hal_sx1278_write_addr
    drv_sx1278.o(i.drv_sx1278_send) refers to hal_sx1278.o(i.hal_sx1278_write_fifo) for hal_sx1278_write_fifo
    drv_sx1278.o(i.drv_sx1278_send_check) refers to hal_sx1278.o(i.hal_sx1278_read_addr) for hal_sx1278_read_addr
    drv_sx1278.o(i.drv_sx1278_send_check) refers to hal_sx1278.o(i.hal_sx1278_write_addr) for hal_sx1278_write_addr
    drv_sx1278.o(i.drv_sx1278_set_bw) refers to hal_sx1278.o(i.hal_sx1278_read_addr) for hal_sx1278_read_addr
    drv_sx1278.o(i.drv_sx1278_set_bw) refers to hal_sx1278.o(i.hal_sx1278_write_addr) for hal_sx1278_write_addr
    drv_sx1278.o(i.drv_sx1278_set_default_param) refers to hal_sx1278.o(i.hal_sx1278_write_addr) for hal_sx1278_write_addr
    drv_sx1278.o(i.drv_sx1278_set_default_param) refers to drv_sx1278.o(i.drv_sx1278_set_rf_freq) for drv_sx1278_set_rf_freq
    drv_sx1278.o(i.drv_sx1278_set_default_param) refers to drv_sx1278.o(i.drv_sx1278_set_sf) for drv_sx1278_set_sf
    drv_sx1278.o(i.drv_sx1278_set_default_param) refers to drv_sx1278.o(i.drv_sx1278_set_error_coding) for drv_sx1278_set_error_coding
    drv_sx1278.o(i.drv_sx1278_set_default_param) refers to drv_sx1278.o(i.drv_sx1278_set_packet_crc_on) for drv_sx1278_set_packet_crc_on
    drv_sx1278.o(i.drv_sx1278_set_default_param) refers to drv_sx1278.o(i.drv_sx1278_set_bw) for drv_sx1278_set_bw
    drv_sx1278.o(i.drv_sx1278_set_default_param) refers to drv_sx1278.o(i.drv_sx1278_set_implicit_header_on) for drv_sx1278_set_implicit_header_on
    drv_sx1278.o(i.drv_sx1278_set_default_param) refers to drv_sx1278.o(i.drv_sx1278_set_symb_timeout) for drv_sx1278_set_symb_timeout
    drv_sx1278.o(i.drv_sx1278_set_default_param) refers to drv_sx1278.o(i.drv_sx1278_set_payload_length) for drv_sx1278_set_payload_length
    drv_sx1278.o(i.drv_sx1278_set_default_param) refers to drv_sx1278.o(i.drv_sx1278_set_lowdatarateoptimize) for drv_sx1278_set_lowdatarateoptimize
    drv_sx1278.o(i.drv_sx1278_set_default_param) refers to drv_sx1278.o(i.drv_sx1278_set_pa_output) for drv_sx1278_set_pa_output
    drv_sx1278.o(i.drv_sx1278_set_default_param) refers to drv_sx1278.o(i.drv_sx1278_set_rf_power) for drv_sx1278_set_rf_power
    drv_sx1278.o(i.drv_sx1278_set_default_param) refers to hal_sx1278.o(i.hal_sx1278_read_addr) for hal_sx1278_read_addr
    drv_sx1278.o(i.drv_sx1278_set_default_param) refers to drv_sx1278.o(i.drv_sx1278_set_op_mode) for drv_sx1278_set_op_mode
    drv_sx1278.o(i.drv_sx1278_set_error_coding) refers to hal_sx1278.o(i.hal_sx1278_read_addr) for hal_sx1278_read_addr
    drv_sx1278.o(i.drv_sx1278_set_error_coding) refers to hal_sx1278.o(i.hal_sx1278_write_addr) for hal_sx1278_write_addr
    drv_sx1278.o(i.drv_sx1278_set_hop_period) refers to hal_sx1278.o(i.hal_sx1278_write_addr) for hal_sx1278_write_addr
    drv_sx1278.o(i.drv_sx1278_set_implicit_header_on) refers to hal_sx1278.o(i.hal_sx1278_read_addr) for hal_sx1278_read_addr
    drv_sx1278.o(i.drv_sx1278_set_implicit_header_on) refers to hal_sx1278.o(i.hal_sx1278_write_addr) for hal_sx1278_write_addr
    drv_sx1278.o(i.drv_sx1278_set_lowdatarateoptimize) refers to hal_sx1278.o(i.hal_sx1278_read_addr) for hal_sx1278_read_addr
    drv_sx1278.o(i.drv_sx1278_set_lowdatarateoptimize) refers to hal_sx1278.o(i.hal_sx1278_write_addr) for hal_sx1278_write_addr
    drv_sx1278.o(i.drv_sx1278_set_nb_trig_peaks) refers to hal_sx1278.o(i.hal_sx1278_read_addr) for hal_sx1278_read_addr
    drv_sx1278.o(i.drv_sx1278_set_nb_trig_peaks) refers to hal_sx1278.o(i.hal_sx1278_write_addr) for hal_sx1278_write_addr
    drv_sx1278.o(i.drv_sx1278_set_on) refers to drv_sx1278.o(i.drv_sx1278_set_op_mode) for drv_sx1278_set_op_mode
    drv_sx1278.o(i.drv_sx1278_set_on) refers to hal_sx1278.o(i.hal_sx1278_read_addr) for hal_sx1278_read_addr
    drv_sx1278.o(i.drv_sx1278_set_on) refers to hal_sx1278.o(i.hal_sx1278_write_addr) for hal_sx1278_write_addr
    drv_sx1278.o(i.drv_sx1278_set_op_mode) refers to hal_sx1278.o(i.hal_sx1278_read_addr) for hal_sx1278_read_addr
    drv_sx1278.o(i.drv_sx1278_set_op_mode) refers to hal_sx1278.o(i.hal_sx1278_write_addr) for hal_sx1278_write_addr
    drv_sx1278.o(i.drv_sx1278_set_pa20dBm) refers to hal_sx1278.o(i.hal_sx1278_read_addr) for hal_sx1278_read_addr
    drv_sx1278.o(i.drv_sx1278_set_pa20dBm) refers to hal_sx1278.o(i.hal_sx1278_write_addr) for hal_sx1278_write_addr
    drv_sx1278.o(i.drv_sx1278_set_pa_output) refers to hal_sx1278.o(i.hal_sx1278_read_addr) for hal_sx1278_read_addr
    drv_sx1278.o(i.drv_sx1278_set_pa_output) refers to hal_sx1278.o(i.hal_sx1278_write_addr) for hal_sx1278_write_addr
    drv_sx1278.o(i.drv_sx1278_set_packet_crc_on) refers to hal_sx1278.o(i.hal_sx1278_read_addr) for hal_sx1278_read_addr
    drv_sx1278.o(i.drv_sx1278_set_packet_crc_on) refers to hal_sx1278.o(i.hal_sx1278_write_addr) for hal_sx1278_write_addr
    drv_sx1278.o(i.drv_sx1278_set_payload_length) refers to hal_sx1278.o(i.hal_sx1278_write_addr) for hal_sx1278_write_addr
    drv_sx1278.o(i.drv_sx1278_set_preamble_length) refers to hal_sx1278.o(i.hal_sx1278_write_addr) for hal_sx1278_write_addr
    drv_sx1278.o(i.drv_sx1278_set_rf_freq) refers to dfltui.o(.text) for __aeabi_ui2d
    drv_sx1278.o(i.drv_sx1278_set_rf_freq) refers to ddiv.o(.text) for __aeabi_ddiv
    drv_sx1278.o(i.drv_sx1278_set_rf_freq) refers to dfixui.o(.text) for __aeabi_d2uiz
    drv_sx1278.o(i.drv_sx1278_set_rf_freq) refers to hal_sx1278.o(i.hal_sx1278_write_addr) for hal_sx1278_write_addr
    drv_sx1278.o(i.drv_sx1278_set_rf_power) refers to hal_sx1278.o(i.hal_sx1278_read_addr) for hal_sx1278_read_addr
    drv_sx1278.o(i.drv_sx1278_set_rf_power) refers to drv_sx1278.o(i.drv_sx1278_set_pa20dBm) for drv_sx1278_set_pa20dBm
    drv_sx1278.o(i.drv_sx1278_set_rf_power) refers to printf8.o(i.__0printf$8) for __2printf
    drv_sx1278.o(i.drv_sx1278_set_rf_power) refers to hal_sx1278.o(i.hal_sx1278_write_addr) for hal_sx1278_write_addr
    drv_sx1278.o(i.drv_sx1278_set_sf) refers to drv_sx1278.o(i.drv_sx1278_set_nb_trig_peaks) for drv_sx1278_set_nb_trig_peaks
    drv_sx1278.o(i.drv_sx1278_set_sf) refers to hal_sx1278.o(i.hal_sx1278_write_addr) for hal_sx1278_write_addr
    drv_sx1278.o(i.drv_sx1278_set_sf) refers to hal_sx1278.o(i.hal_sx1278_read_addr) for hal_sx1278_read_addr
    drv_sx1278.o(i.drv_sx1278_set_symb_timeout) refers to hal_sx1278.o(i.hal_sx1278_read_addr) for hal_sx1278_read_addr
    drv_sx1278.o(i.drv_sx1278_set_symb_timeout) refers to hal_sx1278.o(i.hal_sx1278_write_addr) for hal_sx1278_write_addr
    aes.o(i.aes_gen_tables) refers to aes.o(.bss) for pow
    aes.o(i.mbedtls_aes_crypt_cbc) refers to memcpya.o(.text) for __aeabi_memcpy
    aes.o(i.mbedtls_aes_crypt_cbc) refers to aes.o(i.mbedtls_aes_crypt_ecb) for mbedtls_aes_crypt_ecb
    aes.o(i.mbedtls_aes_crypt_cfb128) refers to aes.o(i.mbedtls_aes_crypt_ecb) for mbedtls_aes_crypt_ecb
    aes.o(i.mbedtls_aes_crypt_cfb8) refers to memcpya.o(.text) for __aeabi_memcpy
    aes.o(i.mbedtls_aes_crypt_cfb8) refers to aes.o(i.mbedtls_aes_crypt_ecb) for mbedtls_aes_crypt_ecb
    aes.o(i.mbedtls_aes_crypt_ctr) refers to aes.o(i.mbedtls_aes_crypt_ecb) for mbedtls_aes_crypt_ecb
    aes.o(i.mbedtls_aes_crypt_ecb) refers to aes.o(i.mbedtls_internal_aes_encrypt) for mbedtls_internal_aes_encrypt
    aes.o(i.mbedtls_aes_crypt_ecb) refers to aes.o(i.mbedtls_internal_aes_decrypt) for mbedtls_internal_aes_decrypt
    aes.o(i.mbedtls_aes_decrypt) refers to aes.o(i.mbedtls_internal_aes_decrypt) for mbedtls_internal_aes_decrypt
    aes.o(i.mbedtls_aes_encrypt) refers to aes.o(i.mbedtls_internal_aes_encrypt) for mbedtls_internal_aes_encrypt
    aes.o(i.mbedtls_aes_free) refers to aes.o(i.mbedtls_zeroize) for mbedtls_zeroize
    aes.o(i.mbedtls_aes_init) refers to memseta.o(.text) for __aeabi_memclr4
    aes.o(i.mbedtls_aes_self_test) refers to memseta.o(.text) for __aeabi_memclr4
    aes.o(i.mbedtls_aes_self_test) refers to aes.o(i.mbedtls_aes_init) for mbedtls_aes_init
    aes.o(i.mbedtls_aes_self_test) refers to printf8.o(i.__0printf$8) for __2printf
    aes.o(i.mbedtls_aes_self_test) refers to aes.o(i.mbedtls_aes_setkey_dec) for mbedtls_aes_setkey_dec
    aes.o(i.mbedtls_aes_self_test) refers to aes.o(i.mbedtls_aes_crypt_ecb) for mbedtls_aes_crypt_ecb
    aes.o(i.mbedtls_aes_self_test) refers to memcmp.o(.text) for memcmp
    aes.o(i.mbedtls_aes_self_test) refers to aes.o(i.mbedtls_aes_setkey_enc) for mbedtls_aes_setkey_enc
    aes.o(i.mbedtls_aes_self_test) refers to aes.o(i.mbedtls_aes_crypt_cbc) for mbedtls_aes_crypt_cbc
    aes.o(i.mbedtls_aes_self_test) refers to memcpya.o(.text) for __aeabi_memcpy
    aes.o(i.mbedtls_aes_self_test) refers to aes.o(i.mbedtls_aes_crypt_cfb128) for mbedtls_aes_crypt_cfb128
    aes.o(i.mbedtls_aes_self_test) refers to aes.o(i.mbedtls_aes_crypt_ctr) for mbedtls_aes_crypt_ctr
    aes.o(i.mbedtls_aes_self_test) refers to aes.o(i.mbedtls_aes_free) for mbedtls_aes_free
    aes.o(i.mbedtls_aes_self_test) refers to aes.o(.constdata) for aes_test_ecb_dec
    aes.o(i.mbedtls_aes_setkey_dec) refers to aes.o(i.mbedtls_aes_init) for mbedtls_aes_init
    aes.o(i.mbedtls_aes_setkey_dec) refers to aes.o(i.mbedtls_aes_setkey_enc) for mbedtls_aes_setkey_enc
    aes.o(i.mbedtls_aes_setkey_dec) refers to aes.o(i.mbedtls_aes_free) for mbedtls_aes_free
    aes.o(i.mbedtls_aes_setkey_dec) refers to aes.o(.bss) for FSb
    aes.o(i.mbedtls_aes_setkey_enc) refers to aes.o(i.aes_gen_tables) for aes_gen_tables
    aes.o(i.mbedtls_aes_setkey_enc) refers to aes.o(.data) for aes_init_done
    aes.o(i.mbedtls_aes_setkey_enc) refers to aes.o(.bss) for RCON
    aes.o(i.mbedtls_internal_aes_decrypt) refers to aes.o(.bss) for RT0
    aes.o(i.mbedtls_internal_aes_encrypt) refers to aes.o(.bss) for FT0
    nwk_node.o(i.nwk_node_cad_check) refers to drv_sx1278.o(i.drv_sx1278_cad_check) for drv_sx1278_cad_check
    nwk_node.o(i.nwk_node_cad_check) refers to nwk_node.o(.bss) for g_sNwkNodeWork
    nwk_node.o(i.nwk_node_cad_init) refers to drv_sx1278.o(i.drv_sx1278_cad_init) for drv_sx1278_cad_init
    nwk_node.o(i.nwk_node_cad_init) refers to nwk_node.o(.bss) for g_sNwkNodeWork
    nwk_node.o(i.nwk_node_calcu_air_time) refers to drv_sx1278.o(i.drv_sx1278_calcu_air_time) for drv_sx1278_calcu_air_time
    nwk_node.o(i.nwk_node_main) refers to nwk_node.o(i.nwk_node_work_check) for nwk_node_work_check
    nwk_node.o(i.nwk_node_main) refers to nwk_node.o(.bss) for g_sNwkNodeWork
    nwk_node.o(i.nwk_node_make_send_buff) refers to memseta.o(.text) for __aeabi_memclr4
    nwk_node.o(i.nwk_node_make_send_buff) refers to memcpya.o(.text) for __aeabi_memcpy
    nwk_node.o(i.nwk_node_make_send_buff) refers to nwk_bsp.o(i.nwk_crc16) for nwk_crc16
    nwk_node.o(i.nwk_node_make_send_buff) refers to nwk_bsp.o(i.nwk_tea_encrypt) for nwk_tea_encrypt
    nwk_node.o(i.nwk_node_make_send_buff) refers to nwk_bsp.o(i.nwk_aes_encrypt) for nwk_aes_encrypt
    nwk_node.o(i.nwk_node_make_send_buff) refers to nwk_node.o(.bss) for g_sNwkNodeSave
    nwk_node.o(i.nwk_node_read) refers to nwk_bsp.o(i.nwk_eeprom_read) for nwk_eeprom_read
    nwk_node.o(i.nwk_node_read) refers to nwk_bsp.o(i.nwk_crc16) for nwk_crc16
    nwk_node.o(i.nwk_node_read) refers to memseta.o(.text) for __aeabi_memclr4
    nwk_node.o(i.nwk_node_read) refers to nwk_node.o(i.nwk_node_save) for nwk_node_save
    nwk_node.o(i.nwk_node_read) refers to nwk_node.o(.bss) for g_sNwkNodeSave
    nwk_node.o(i.nwk_node_recv_check) refers to drv_sx1278.o(i.drv_sx1278_recv_check) for drv_sx1278_recv_check
    nwk_node.o(i.nwk_node_recv_check) refers to drv_sx1278.o(i.drv_sx1278_read_rssi) for drv_sx1278_read_rssi
    nwk_node.o(i.nwk_node_recv_check) refers to nwk_node.o(.bss) for g_sNwkNodeWork
    nwk_node.o(i.nwk_node_recv_from_check) refers to nwk_node.o(.bss) for g_sNwkNodeWork
    nwk_node.o(i.nwk_node_recv_init) refers to drv_sx1278.o(i.drv_sx1278_recv_init) for drv_sx1278_recv_init
    nwk_node.o(i.nwk_node_recv_init) refers to nwk_node.o(.bss) for g_sNwkNodeWork
    nwk_node.o(i.nwk_node_recv_parse) refers to memseta.o(.text) for __aeabi_memclr4
    nwk_node.o(i.nwk_node_recv_parse) refers to nwk_bsp.o(i.nwk_find_head) for nwk_find_head
    nwk_node.o(i.nwk_node_recv_parse) refers to printf8.o(i.__0printf$8) for __2printf
    nwk_node.o(i.nwk_node_recv_parse) refers to nwk_node.o(i.nwk_node_search_gw) for nwk_node_search_gw
    nwk_node.o(i.nwk_node_recv_parse) refers to memcpya.o(.text) for __aeabi_memcpy
    nwk_node.o(i.nwk_node_recv_parse) refers to nwk_bsp.o(i.nwk_tea_decrypt) for nwk_tea_decrypt
    nwk_node.o(i.nwk_node_recv_parse) refers to nwk_bsp.o(i.nwk_aes_decrypt) for nwk_aes_decrypt
    nwk_node.o(i.nwk_node_recv_parse) refers to nwk_bsp.o(i.nwk_crc16) for nwk_crc16
    nwk_node.o(i.nwk_node_recv_parse) refers to nwk_bsp.o(i.nwk_get_rtc_counter) for nwk_get_rtc_counter
    nwk_node.o(i.nwk_node_recv_parse) refers to nwk_bsp.o(i.nwk_set_rtc_counter) for nwk_set_rtc_counter
    nwk_node.o(i.nwk_node_recv_parse) refers to nwk_bsp.o(i.nwk_tea_encrypt) for nwk_tea_encrypt
    nwk_node.o(i.nwk_node_recv_parse) refers to nwk_bsp.o(i.nwk_get_rand) for nwk_get_rand
    nwk_node.o(i.nwk_node_recv_parse) refers to nwk_node.o(i.nwk_node_make_send_buff) for nwk_node_make_send_buff
    nwk_node.o(i.nwk_node_recv_parse) refers to nwk_node.o(.bss) for g_sNwkNodeWork
    nwk_node.o(i.nwk_node_req_join) refers to nwk_node.o(.bss) for g_sNwkNodeWork
    nwk_node.o(i.nwk_node_rx_process) refers to nwk_bsp.o(i.nwk_crc16) for nwk_crc16
    nwk_node.o(i.nwk_node_rx_process) refers to printf8.o(i.__0printf$8) for __2printf
    nwk_node.o(i.nwk_node_rx_process) refers to nwk_node.o(i.nwk_node_set_lora_param) for nwk_node_set_lora_param
    nwk_node.o(i.nwk_node_rx_process) refers to nwk_node.o(i.nwk_node_cad_init) for nwk_node_cad_init
    nwk_node.o(i.nwk_node_rx_process) refers to nwk_node.o(i.nwk_node_cad_check) for nwk_node_cad_check
    nwk_node.o(i.nwk_node_rx_process) refers to nwk_node.o(i.nwk_node_send_sniff) for nwk_node_send_sniff
    nwk_node.o(i.nwk_node_rx_process) refers to nwk_node.o(i.nwk_node_recv_init) for nwk_node_recv_init
    nwk_node.o(i.nwk_node_rx_process) refers to nwk_node.o(i.nwk_node_calcu_air_time) for nwk_node_calcu_air_time
    nwk_node.o(i.nwk_node_rx_process) refers to nwk_bsp.o(i.nwk_get_rtc_counter) for nwk_get_rtc_counter
    nwk_node.o(i.nwk_node_rx_process) refers to nwk_node.o(i.nwk_node_recv_check) for nwk_node_recv_check
    nwk_node.o(i.nwk_node_rx_process) refers to nwk_node.o(i.nwk_node_recv_parse) for nwk_node_recv_parse
    nwk_node.o(i.nwk_node_rx_process) refers to nwk_node.o(i.nwk_node_send_buff) for nwk_node_send_buff
    nwk_node.o(i.nwk_node_rx_process) refers to nwk_node.o(i.nwk_node_send_check) for nwk_node_send_check
    nwk_node.o(i.nwk_node_rx_process) refers to nwk_node.o(.bss) for g_sNwkNodeWork
    nwk_node.o(i.nwk_node_save) refers to nwk_bsp.o(i.nwk_crc16) for nwk_crc16
    nwk_node.o(i.nwk_node_save) refers to nwk_bsp.o(i.nwk_eeprom_save) for nwk_eeprom_save
    nwk_node.o(i.nwk_node_save) refers to nwk_node.o(.bss) for g_sNwkNodeSave
    nwk_node.o(i.nwk_node_search_gw) refers to nwk_node.o(.bss) for g_sNwkNodeWork
    nwk_node.o(i.nwk_node_search_process) refers to nwk_node.o(i.nwk_node_set_lora_param) for nwk_node_set_lora_param
    nwk_node.o(i.nwk_node_search_process) refers to nwk_node.o(i.nwk_node_cad_init) for nwk_node_cad_init
    nwk_node.o(i.nwk_node_search_process) refers to nwk_node.o(i.nwk_node_cad_check) for nwk_node_cad_check
    nwk_node.o(i.nwk_node_search_process) refers to nwk_node.o(i.nwk_node_recv_init) for nwk_node_recv_init
    nwk_node.o(i.nwk_node_search_process) refers to nwk_node.o(i.nwk_node_recv_check) for nwk_node_recv_check
    nwk_node.o(i.nwk_node_search_process) refers to nwk_bsp.o(i.nwk_tea_decrypt) for nwk_tea_decrypt
    nwk_node.o(i.nwk_node_search_process) refers to nwk_bsp.o(i.nwk_find_head) for nwk_find_head
    nwk_node.o(i.nwk_node_search_process) refers to nwk_node.o(i.nwk_node_search_gw) for nwk_node_search_gw
    nwk_node.o(i.nwk_node_search_process) refers to printf8.o(i.__0printf$8) for __2printf
    nwk_node.o(i.nwk_node_search_process) refers to nwk_bsp.o(i.nwk_get_rtc_counter) for nwk_get_rtc_counter
    nwk_node.o(i.nwk_node_search_process) refers to nwk_node.o(.bss) for g_sNwkNodeWork
    nwk_node.o(i.nwk_node_search_process) refers to nwk_node.o(.data) for ptr
    nwk_node.o(i.nwk_node_select_gw) refers to nwk_node.o(.bss) for g_sNwkNodeWork
    nwk_node.o(i.nwk_node_send2gateway) refers to memcpya.o(.text) for __aeabi_memcpy
    nwk_node.o(i.nwk_node_send2gateway) refers to nwk_node.o(.bss) for g_sNwkNodeWork
    nwk_node.o(i.nwk_node_send_buff) refers to drv_sx1278.o(i.drv_sx1278_send) for drv_sx1278_send
    nwk_node.o(i.nwk_node_send_buff) refers to nwk_node.o(.bss) for g_sNwkNodeWork
    nwk_node.o(i.nwk_node_send_check) refers to drv_sx1278.o(i.drv_sx1278_send_check) for drv_sx1278_send_check
    nwk_node.o(i.nwk_node_send_check) refers to nwk_node.o(.bss) for g_sNwkNodeWork
    nwk_node.o(i.nwk_node_send_sniff) refers to nwk_node.o(i.nwk_node_calcu_air_time) for nwk_node_calcu_air_time
    nwk_node.o(i.nwk_node_send_sniff) refers to dfltui.o(.text) for __aeabi_ui2d
    nwk_node.o(i.nwk_node_send_sniff) refers to dmul.o(.text) for __aeabi_dmul
    nwk_node.o(i.nwk_node_send_sniff) refers to ddiv.o(.text) for __aeabi_ddiv
    nwk_node.o(i.nwk_node_send_sniff) refers to dadd.o(.text) for __aeabi_dadd
    nwk_node.o(i.nwk_node_send_sniff) refers to dfixui.o(.text) for __aeabi_d2uiz
    nwk_node.o(i.nwk_node_send_sniff) refers to drv_sx1278.o(i.drv_sx1278_send) for drv_sx1278_send
    nwk_node.o(i.nwk_node_send_sniff) refers to nwk_bsp.o(i.nwk_delay_ms) for nwk_delay_ms
    nwk_node.o(i.nwk_node_send_sniff) refers to nwk_node.o(.bss) for g_sNwkNodeWork
    nwk_node.o(i.nwk_node_set_lora_param) refers to drv_sx1278.o(i.drv_sx1278_set_rf_freq) for drv_sx1278_set_rf_freq
    nwk_node.o(i.nwk_node_set_lora_param) refers to drv_sx1278.o(i.drv_sx1278_set_sf) for drv_sx1278_set_sf
    nwk_node.o(i.nwk_node_set_lora_param) refers to drv_sx1278.o(i.drv_sx1278_set_bw) for drv_sx1278_set_bw
    nwk_node.o(i.nwk_node_set_lora_param) refers to nwk_node.o(.bss) for g_sNwkNodeWork
    nwk_node.o(i.nwk_node_sleep_init) refers to drv_sx1278.o(i.drv_sx1278_set_op_mode) for drv_sx1278_set_op_mode
    nwk_node.o(i.nwk_node_sleep_init) refers to nwk_node.o(.bss) for g_sNwkNodeWork
    nwk_node.o(i.nwk_node_tx_d2d_process) refers to nwk_node.o(.bss) for g_sNwkNodeWork
    nwk_node.o(i.nwk_node_tx_gw_process) refers to nwk_node.o(i.nwk_node_search_gw) for nwk_node_search_gw
    nwk_node.o(i.nwk_node_tx_gw_process) refers to nwk_node.o(i.nwk_node_select_gw) for nwk_node_select_gw
    nwk_node.o(i.nwk_node_tx_gw_process) refers to nwk_node.o(i.nwk_node_make_send_buff) for nwk_node_make_send_buff
    nwk_node.o(i.nwk_node_tx_gw_process) refers to nwk_bsp.o(i.nwk_get_rand) for nwk_get_rand
    nwk_node.o(i.nwk_node_tx_gw_process) refers to printf8.o(i.__0printf$8) for __2printf
    nwk_node.o(i.nwk_node_tx_gw_process) refers to nwk_bsp.o(i.nwk_get_channel) for nwk_get_channel
    nwk_node.o(i.nwk_node_tx_gw_process) refers to nwk_node.o(i.nwk_node_set_lora_param) for nwk_node_set_lora_param
    nwk_node.o(i.nwk_node_tx_gw_process) refers to nwk_node.o(i.nwk_node_cad_init) for nwk_node_cad_init
    nwk_node.o(i.nwk_node_tx_gw_process) refers to nwk_node.o(i.nwk_node_cad_check) for nwk_node_cad_check
    nwk_node.o(i.nwk_node_tx_gw_process) refers to nwk_node.o(i.nwk_node_send_sniff) for nwk_node_send_sniff
    nwk_node.o(i.nwk_node_tx_gw_process) refers to nwk_bsp.o(i.nwk_delay_ms) for nwk_delay_ms
    nwk_node.o(i.nwk_node_tx_gw_process) refers to nwk_node.o(i.nwk_node_send_buff) for nwk_node_send_buff
    nwk_node.o(i.nwk_node_tx_gw_process) refers to nwk_node.o(i.nwk_node_calcu_air_time) for nwk_node_calcu_air_time
    nwk_node.o(i.nwk_node_tx_gw_process) refers to dfltui.o(.text) for __aeabi_ui2d
    nwk_node.o(i.nwk_node_tx_gw_process) refers to dmul.o(.text) for __aeabi_dmul
    nwk_node.o(i.nwk_node_tx_gw_process) refers to dfixui.o(.text) for __aeabi_d2uiz
    nwk_node.o(i.nwk_node_tx_gw_process) refers to nwk_bsp.o(i.nwk_get_rtc_counter) for nwk_get_rtc_counter
    nwk_node.o(i.nwk_node_tx_gw_process) refers to nwk_node.o(i.nwk_node_send_check) for nwk_node_send_check
    nwk_node.o(i.nwk_node_tx_gw_process) refers to nwk_node.o(i.nwk_node_recv_init) for nwk_node_recv_init
    nwk_node.o(i.nwk_node_tx_gw_process) refers to nwk_node.o(i.nwk_node_recv_check) for nwk_node_recv_check
    nwk_node.o(i.nwk_node_tx_gw_process) refers to nwk_node.o(i.nwk_node_recv_parse) for nwk_node_recv_parse
    nwk_node.o(i.nwk_node_tx_gw_process) refers to memseta.o(.text) for __aeabi_memclr
    nwk_node.o(i.nwk_node_tx_gw_process) refers to nwk_node.o(.bss) for g_sNwkNodeWork
    nwk_node.o(i.nwk_node_tx_gw_process) refers to nwk_node.o(.data) for pMakeBuff
    nwk_node.o(i.nwk_node_work_check) refers to nwk_bsp.o(i.nwk_get_rtc_counter) for nwk_get_rtc_counter
    nwk_node.o(i.nwk_node_work_check) refers to printf8.o(i.__0printf$8) for __2printf
    nwk_node.o(i.nwk_node_work_check) refers to nwk_node.o(i.nwk_node_sleep_init) for nwk_node_sleep_init
    nwk_node.o(i.nwk_node_work_check) refers to nwk_node.o(i.nwk_node_search_process) for nwk_node_search_process
    nwk_node.o(i.nwk_node_work_check) refers to nwk_node.o(i.nwk_node_rx_process) for nwk_node_rx_process
    nwk_node.o(i.nwk_node_work_check) refers to nwk_node.o(i.nwk_node_tx_gw_process) for nwk_node_tx_gw_process
    nwk_node.o(i.nwk_node_work_check) refers to nwk_node.o(i.nwk_node_tx_d2d_process) for nwk_node_tx_d2d_process
    nwk_node.o(i.nwk_node_work_check) refers to nwk_node.o(.bss) for g_sNwkNodeWork
    nwk_node.o(i.nwk_node_work_check) refers to nwk_node.o(.data) for wait_time
    nwk_node.o(i.nwk_set_lora_dev) refers to nwk_node.o(.bss) for g_sNwkNodeWork
    nwk_node.o(i.nwk_set_node_sn) refers to nwk_node.o(i.nwk_node_save) for nwk_node_save
    nwk_node.o(i.nwk_set_node_sn) refers to nwk_node.o(.bss) for g_sNwkNodeSave
    nwk_node.o(i.nwk_set_parent) refers to nwk_node.o(i.nwk_node_save) for nwk_node_save
    nwk_node.o(i.nwk_set_parent) refers to nwk_node.o(.bss) for g_sNwkNodeSave
    nwk_node.o(i.nwk_set_root_key) refers to memcpya.o(.text) for __aeabi_memcpy
    nwk_node.o(i.nwk_set_root_key) refers to nwk_node.o(.bss) for g_sNwkNodeWork
    nwk_node.o(i.nwk_set_wake_period) refers to nwk_node.o(.bss) for g_sNwkNodeWork
    nwk_node.o(.data) refers to nwk_node.o(.bss) for g_sNwkNodeWork
    nwk_bsp.o(i.nwk_aes_decrypt) refers to drv_encrypt.o(i.aes_decrypt_buff) for aes_decrypt_buff
    nwk_bsp.o(i.nwk_aes_encrypt) refers to drv_encrypt.o(i.aes_encrypt_buff) for aes_encrypt_buff
    nwk_bsp.o(i.nwk_crc16) refers to drv_common.o(i.drv_crc16) for drv_crc16
    nwk_bsp.o(i.nwk_delay_ms) refers to drv_common.o(i.delay_ms) for delay_ms
    nwk_bsp.o(i.nwk_delay_us) refers to drv_common.o(i.delay_us) for delay_us
    nwk_bsp.o(i.nwk_eeprom_read) refers to drv_common.o(i.EEPROM_Read) for EEPROM_Read
    nwk_bsp.o(i.nwk_eeprom_save) refers to drv_common.o(i.EEPROM_Write) for EEPROM_Write
    nwk_bsp.o(i.nwk_find_head) refers to memcmp.o(.text) for memcmp
    nwk_bsp.o(i.nwk_get_channel) refers to nwk_bsp.o(.constdata) for rf_table
    nwk_bsp.o(i.nwk_get_rand) refers to nwk_bsp.o(i.nwk_get_rtc_counter) for nwk_get_rtc_counter
    nwk_bsp.o(i.nwk_get_rand) refers to rand.o(.text) for srand
    nwk_bsp.o(i.nwk_get_rand) refers to nwk_bsp.o(.data) for srand_num
    nwk_bsp.o(i.nwk_get_rtc_counter) refers to drv_common.o(i.drv_get_sec_counter) for drv_get_sec_counter
    nwk_bsp.o(i.nwk_set_rtc_counter) refers to drv_common.o(i.drv_set_rtc_counter) for drv_set_rtc_counter
    nwk_bsp.o(i.nwk_tea_decrypt) refers to drv_encrypt.o(i.tea_decrypt_buff) for tea_decrypt_buff
    nwk_bsp.o(i.nwk_tea_encrypt) refers to drv_encrypt.o(i.tea_encrypt_buff) for tea_encrypt_buff
    nwk_slave.o(i.nwk_slave_broad_process) refers to nwk_slave.o(i.nwk_slave_set_lora_param) for nwk_slave_set_lora_param
    nwk_slave.o(i.nwk_slave_broad_process) refers to printf8.o(i.__0printf$8) for __2printf
    nwk_slave.o(i.nwk_slave_broad_process) refers to nwk_slave.o(i.nwk_slave_send_buff) for nwk_slave_send_buff
    nwk_slave.o(i.nwk_slave_broad_process) refers to nwk_slave.o(i.nwk_slave_calcu_air_time) for nwk_slave_calcu_air_time
    nwk_slave.o(i.nwk_slave_broad_process) refers to dfltui.o(.text) for __aeabi_ui2d
    nwk_slave.o(i.nwk_slave_broad_process) refers to dmul.o(.text) for __aeabi_dmul
    nwk_slave.o(i.nwk_slave_broad_process) refers to dfixui.o(.text) for __aeabi_d2uiz
    nwk_slave.o(i.nwk_slave_broad_process) refers to nwk_bsp.o(i.nwk_get_rtc_counter) for nwk_get_rtc_counter
    nwk_slave.o(i.nwk_slave_broad_process) refers to nwk_slave.o(i.nwk_slave_send_check) for nwk_slave_send_check
    nwk_slave.o(i.nwk_slave_broad_process) refers to nwk_slave.o(.bss) for g_sNwkSlaveWork
    nwk_slave.o(i.nwk_slave_cad_check) refers to drv_sx1278.o(i.drv_sx1278_cad_check) for drv_sx1278_cad_check
    nwk_slave.o(i.nwk_slave_cad_check) refers to nwk_slave.o(.bss) for g_sNwkSlaveWork
    nwk_slave.o(i.nwk_slave_cad_init) refers to drv_sx1278.o(i.drv_sx1278_cad_init) for drv_sx1278_cad_init
    nwk_slave.o(i.nwk_slave_cad_init) refers to nwk_slave.o(.bss) for g_sNwkSlaveWork
    nwk_slave.o(i.nwk_slave_calcu_air_time) refers to drv_sx1278.o(i.drv_sx1278_calcu_air_time) for drv_sx1278_calcu_air_time
    nwk_slave.o(i.nwk_slave_fun_send_register) refers to nwk_slave.o(.bss) for g_sNwkSlaveWork
    nwk_slave.o(i.nwk_slave_main) refers to nwk_slave.o(i.nwk_slave_work_state_check) for nwk_slave_work_state_check
    nwk_slave.o(i.nwk_slave_main) refers to nwk_slave.o(.bss) for g_sNwkSlaveWork
    nwk_slave.o(i.nwk_slave_read) refers to nwk_bsp.o(i.nwk_eeprom_read) for nwk_eeprom_read
    nwk_slave.o(i.nwk_slave_read) refers to nwk_bsp.o(i.nwk_crc16) for nwk_crc16
    nwk_slave.o(i.nwk_slave_read) refers to nwk_slave.o(i.nwk_slave_save) for nwk_slave_save
    nwk_slave.o(i.nwk_slave_read) refers to nwk_slave.o(.data) for g_sNwkSlaveSave
    nwk_slave.o(i.nwk_slave_recv_check) refers to drv_sx1278.o(i.drv_sx1278_recv_check) for drv_sx1278_recv_check
    nwk_slave.o(i.nwk_slave_recv_check) refers to drv_sx1278.o(i.drv_sx1278_read_rssi) for drv_sx1278_read_rssi
    nwk_slave.o(i.nwk_slave_recv_check) refers to nwk_slave.o(.bss) for g_sNwkSlaveWork
    nwk_slave.o(i.nwk_slave_recv_init) refers to drv_sx1278.o(i.drv_sx1278_recv_init) for drv_sx1278_recv_init
    nwk_slave.o(i.nwk_slave_recv_init) refers to nwk_slave.o(.bss) for g_sNwkSlaveWork
    nwk_slave.o(i.nwk_slave_rx_process) refers to printf8.o(i.__0printf$8) for __2printf
    nwk_slave.o(i.nwk_slave_rx_process) refers to nwk_bsp.o(i.nwk_get_channel) for nwk_get_channel
    nwk_slave.o(i.nwk_slave_rx_process) refers to nwk_slave.o(i.nwk_slave_set_lora_param) for nwk_slave_set_lora_param
    nwk_slave.o(i.nwk_slave_rx_process) refers to nwk_slave.o(i.nwk_slave_cad_init) for nwk_slave_cad_init
    nwk_slave.o(i.nwk_slave_rx_process) refers to nwk_slave.o(i.nwk_slave_cad_check) for nwk_slave_cad_check
    nwk_slave.o(i.nwk_slave_rx_process) refers to nwk_slave.o(i.nwk_slave_send_sniff) for nwk_slave_send_sniff
    nwk_slave.o(i.nwk_slave_rx_process) refers to nwk_slave.o(i.nwk_slave_recv_init) for nwk_slave_recv_init
    nwk_slave.o(i.nwk_slave_rx_process) refers to nwk_slave.o(i.nwk_slave_calcu_air_time) for nwk_slave_calcu_air_time
    nwk_slave.o(i.nwk_slave_rx_process) refers to nwk_bsp.o(i.nwk_get_rtc_counter) for nwk_get_rtc_counter
    nwk_slave.o(i.nwk_slave_rx_process) refers to nwk_slave.o(i.nwk_slave_recv_check) for nwk_slave_recv_check
    nwk_slave.o(i.nwk_slave_rx_process) refers to nwk_slave.o(i.nwk_slave_send_rx) for nwk_slave_send_rx
    nwk_slave.o(i.nwk_slave_rx_process) refers to nwk_slave.o(i.nwk_slave_send_check) for nwk_slave_send_check
    nwk_slave.o(i.nwk_slave_rx_process) refers to nwk_slave.o(.bss) for g_sNwkSlaveWork
    nwk_slave.o(i.nwk_slave_save) refers to nwk_bsp.o(i.nwk_crc16) for nwk_crc16
    nwk_slave.o(i.nwk_slave_save) refers to nwk_bsp.o(i.nwk_eeprom_save) for nwk_eeprom_save
    nwk_slave.o(i.nwk_slave_save) refers to nwk_slave.o(.data) for g_sNwkSlaveSave
    nwk_slave.o(i.nwk_slave_send_buff) refers to drv_sx1278.o(i.drv_sx1278_send) for drv_sx1278_send
    nwk_slave.o(i.nwk_slave_send_buff) refers to nwk_slave.o(.bss) for g_sNwkSlaveWork
    nwk_slave.o(i.nwk_slave_send_check) refers to drv_sx1278.o(i.drv_sx1278_send_check) for drv_sx1278_send_check
    nwk_slave.o(i.nwk_slave_send_check) refers to nwk_slave.o(.bss) for g_sNwkSlaveWork
    nwk_slave.o(i.nwk_slave_send_heart) refers to nwk_slave.o(i.nwk_slave_uart_send_level) for nwk_slave_uart_send_level
    nwk_slave.o(i.nwk_slave_send_rx) refers to memseta.o(.text) for __aeabi_memclr4
    nwk_slave.o(i.nwk_slave_send_rx) refers to memcpya.o(.text) for __aeabi_memcpy
    nwk_slave.o(i.nwk_slave_send_rx) refers to nwk_slave.o(i.nwk_slave_uart_send_level) for nwk_slave_uart_send_level
    nwk_slave.o(i.nwk_slave_send_sniff) refers to nwk_slave.o(i.nwk_slave_calcu_air_time) for nwk_slave_calcu_air_time
    nwk_slave.o(i.nwk_slave_send_sniff) refers to dfltui.o(.text) for __aeabi_ui2d
    nwk_slave.o(i.nwk_slave_send_sniff) refers to dmul.o(.text) for __aeabi_dmul
    nwk_slave.o(i.nwk_slave_send_sniff) refers to ddiv.o(.text) for __aeabi_ddiv
    nwk_slave.o(i.nwk_slave_send_sniff) refers to dadd.o(.text) for __aeabi_dadd
    nwk_slave.o(i.nwk_slave_send_sniff) refers to dfixui.o(.text) for __aeabi_d2uiz
    nwk_slave.o(i.nwk_slave_send_sniff) refers to drv_sx1278.o(i.drv_sx1278_send) for drv_sx1278_send
    nwk_slave.o(i.nwk_slave_send_sniff) refers to nwk_bsp.o(i.nwk_delay_ms) for nwk_delay_ms
    nwk_slave.o(i.nwk_slave_send_sniff) refers to nwk_slave.o(.bss) for g_sNwkSlaveWork
    nwk_slave.o(i.nwk_slave_set_addr) refers to nwk_slave.o(i.nwk_slave_save) for nwk_slave_save
    nwk_slave.o(i.nwk_slave_set_addr) refers to nwk_slave.o(.data) for g_sNwkSlaveSave
    nwk_slave.o(i.nwk_slave_set_lora_dev) refers to nwk_slave.o(.bss) for g_sNwkSlaveWork
    nwk_slave.o(i.nwk_slave_set_lora_param) refers to drv_sx1278.o(i.drv_sx1278_set_rf_freq) for drv_sx1278_set_rf_freq
    nwk_slave.o(i.nwk_slave_set_lora_param) refers to drv_sx1278.o(i.drv_sx1278_set_sf) for drv_sx1278_set_sf
    nwk_slave.o(i.nwk_slave_set_lora_param) refers to drv_sx1278.o(i.drv_sx1278_set_bw) for drv_sx1278_set_bw
    nwk_slave.o(i.nwk_slave_set_lora_param) refers to nwk_slave.o(.bss) for g_sNwkSlaveWork
    nwk_slave.o(i.nwk_slave_tx_process) refers to nwk_bsp.o(i.nwk_get_rtc_counter) for nwk_get_rtc_counter
    nwk_slave.o(i.nwk_slave_tx_process) refers to nwk_slave.o(i.nwk_slave_set_lora_param) for nwk_slave_set_lora_param
    nwk_slave.o(i.nwk_slave_tx_process) refers to nwk_slave.o(i.nwk_slave_cad_init) for nwk_slave_cad_init
    nwk_slave.o(i.nwk_slave_tx_process) refers to nwk_slave.o(i.nwk_slave_cad_check) for nwk_slave_cad_check
    nwk_slave.o(i.nwk_slave_tx_process) refers to printf8.o(i.__0printf$8) for __2printf
    nwk_slave.o(i.nwk_slave_tx_process) refers to nwk_slave.o(i.nwk_slave_send_sniff) for nwk_slave_send_sniff
    nwk_slave.o(i.nwk_slave_tx_process) refers to nwk_bsp.o(i.nwk_delay_ms) for nwk_delay_ms
    nwk_slave.o(i.nwk_slave_tx_process) refers to nwk_slave.o(i.nwk_slave_send_buff) for nwk_slave_send_buff
    nwk_slave.o(i.nwk_slave_tx_process) refers to nwk_slave.o(i.nwk_slave_calcu_air_time) for nwk_slave_calcu_air_time
    nwk_slave.o(i.nwk_slave_tx_process) refers to dfltui.o(.text) for __aeabi_ui2d
    nwk_slave.o(i.nwk_slave_tx_process) refers to dmul.o(.text) for __aeabi_dmul
    nwk_slave.o(i.nwk_slave_tx_process) refers to dfixui.o(.text) for __aeabi_d2uiz
    nwk_slave.o(i.nwk_slave_tx_process) refers to nwk_slave.o(i.nwk_slave_send_check) for nwk_slave_send_check
    nwk_slave.o(i.nwk_slave_tx_process) refers to nwk_slave.o(i.nwk_slave_recv_init) for nwk_slave_recv_init
    nwk_slave.o(i.nwk_slave_tx_process) refers to nwk_slave.o(i.nwk_slave_recv_check) for nwk_slave_recv_check
    nwk_slave.o(i.nwk_slave_tx_process) refers to nwk_slave.o(i.nwk_slave_send_rx) for nwk_slave_send_rx
    nwk_slave.o(i.nwk_slave_tx_process) refers to nwk_slave.o(.bss) for g_sNwkSlaveWork
    nwk_slave.o(i.nwk_slave_uart_parse) refers to nwk_bsp.o(i.nwk_find_head) for nwk_find_head
    nwk_slave.o(i.nwk_slave_uart_parse) refers to nwk_bsp.o(i.nwk_crc16) for nwk_crc16
    nwk_slave.o(i.nwk_slave_uart_parse) refers to printf8.o(i.__0printf$8) for __2printf
    nwk_slave.o(i.nwk_slave_uart_parse) refers to memcpya.o(.text) for __aeabi_memcpy
    nwk_slave.o(i.nwk_slave_uart_parse) refers to drv_common.o(i.printf_hex) for printf_hex
    nwk_slave.o(i.nwk_slave_uart_parse) refers to memseta.o(.text) for __aeabi_memclr4
    nwk_slave.o(i.nwk_slave_uart_parse) refers to nwk_slave.o(i.nwk_slave_set_lora_param) for nwk_slave_set_lora_param
    nwk_slave.o(i.nwk_slave_uart_parse) refers to nwk_slave.o(i.nwk_slave_send_buff) for nwk_slave_send_buff
    nwk_slave.o(i.nwk_slave_uart_parse) refers to nwk_slave.o(i.nwk_slave_calcu_air_time) for nwk_slave_calcu_air_time
    nwk_slave.o(i.nwk_slave_uart_parse) refers to dfltui.o(.text) for __aeabi_ui2d
    nwk_slave.o(i.nwk_slave_uart_parse) refers to dmul.o(.text) for __aeabi_dmul
    nwk_slave.o(i.nwk_slave_uart_parse) refers to dfixui.o(.text) for __aeabi_d2uiz
    nwk_slave.o(i.nwk_slave_uart_parse) refers to nwk_bsp.o(i.nwk_get_rtc_counter) for nwk_get_rtc_counter
    nwk_slave.o(i.nwk_slave_uart_parse) refers to nwk_slave.o(.data) for g_sNwkSlaveSave
    nwk_slave.o(i.nwk_slave_uart_parse) refers to nwk_slave.o(.bss) for g_sNwkSlaveWork
    nwk_slave.o(i.nwk_slave_uart_send_level) refers to memcpya.o(.text) for __aeabi_memcpy
    nwk_slave.o(i.nwk_slave_uart_send_level) refers to nwk_bsp.o(i.nwk_crc16) for nwk_crc16
    nwk_slave.o(i.nwk_slave_uart_send_level) refers to nwk_slave.o(.bss) for make_buff
    nwk_slave.o(i.nwk_slave_uart_send_level) refers to nwk_slave.o(.data) for g_sNwkSlaveSave
    nwk_slave.o(i.nwk_slave_work_state_check) refers to nwk_slave.o(i.nwk_slave_broad_process) for nwk_slave_broad_process
    nwk_slave.o(i.nwk_slave_work_state_check) refers to nwk_slave.o(i.nwk_slave_rx_process) for nwk_slave_rx_process
    nwk_slave.o(i.nwk_slave_work_state_check) refers to nwk_slave.o(i.nwk_slave_tx_process) for nwk_slave_tx_process
    nwk_slave.o(i.nwk_slave_work_state_check) refers to nwk_slave.o(.bss) for g_sNwkSlaveWork
    nwk_master.o(i.nwk_master_add_token) refers to malloc.o(i.malloc) for malloc
    nwk_master.o(i.nwk_master_add_token) refers to memseta.o(.text) for __aeabi_memclr4
    nwk_master.o(i.nwk_master_add_token) refers to nwk_master.o(.bss) for g_sNwkMasterWork
    nwk_master.o(i.nwk_master_del_token) refers to memseta.o(.text) for __aeabi_memclr4
    nwk_master.o(i.nwk_master_del_token) refers to malloc.o(i.free) for free
    nwk_master.o(i.nwk_master_del_token) refers to nwk_master.o(.bss) for g_sNwkMasterWork
    nwk_master.o(i.nwk_master_find_slave) refers to nwk_master.o(.bss) for g_sNwkMasterWork
    nwk_master.o(i.nwk_master_find_token) refers to nwk_master.o(.bss) for g_sNwkMasterWork
    nwk_master.o(i.nwk_master_fun_send_register) refers to nwk_master.o(.bss) for g_sNwkMasterWork
    nwk_master.o(i.nwk_master_lora_parse) refers to memseta.o(.text) for __aeabi_memclr4
    nwk_master.o(i.nwk_master_lora_parse) refers to nwk_bsp.o(i.nwk_find_head) for nwk_find_head
    nwk_master.o(i.nwk_master_lora_parse) refers to printf8.o(i.__0printf$8) for __2printf
    nwk_master.o(i.nwk_master_lora_parse) refers to nwk_master.o(i.nwk_master_find_token) for nwk_master_find_token
    nwk_master.o(i.nwk_master_lora_parse) refers to nwk_master.o(i.nwk_master_add_token) for nwk_master_add_token
    nwk_master.o(i.nwk_master_lora_parse) refers to memcpya.o(.text) for __aeabi_memcpy
    nwk_master.o(i.nwk_master_lora_parse) refers to nwk_bsp.o(i.nwk_tea_decrypt) for nwk_tea_decrypt
    nwk_master.o(i.nwk_master_lora_parse) refers to nwk_bsp.o(i.nwk_crc16) for nwk_crc16
    nwk_master.o(i.nwk_master_lora_parse) refers to nwk_bsp.o(i.nwk_get_rtc_counter) for nwk_get_rtc_counter
    nwk_master.o(i.nwk_master_lora_parse) refers to nwk_bsp.o(i.nwk_get_rand) for nwk_get_rand
    nwk_master.o(i.nwk_master_lora_parse) refers to nwk_bsp.o(i.nwk_tea_encrypt) for nwk_tea_encrypt
    nwk_master.o(i.nwk_master_lora_parse) refers to nwk_master.o(i.nwk_master_make_lora_buff) for nwk_master_make_lora_buff
    nwk_master.o(i.nwk_master_lora_parse) refers to nwk_master.o(i.nwk_master_uart_send_level) for nwk_master_uart_send_level
    nwk_master.o(i.nwk_master_lora_parse) refers to nwk_master.o(.bss) for g_sNwkMasterWork
    nwk_master.o(i.nwk_master_main) refers to nwk_master.o(i.nwk_master_uart_parse) for nwk_master_uart_parse
    nwk_master.o(i.nwk_master_make_lora_buff) refers to memseta.o(.text) for __aeabi_memclr4
    nwk_master.o(i.nwk_master_make_lora_buff) refers to memcpya.o(.text) for __aeabi_memcpy
    nwk_master.o(i.nwk_master_make_lora_buff) refers to nwk_bsp.o(i.nwk_crc16) for nwk_crc16
    nwk_master.o(i.nwk_master_make_lora_buff) refers to nwk_bsp.o(i.nwk_tea_encrypt) for nwk_tea_encrypt
    nwk_master.o(i.nwk_master_make_lora_buff) refers to nwk_master.o(.bss) for g_sNwkMasterWork
    nwk_master.o(i.nwk_master_set_root_key) refers to memcpya.o(.text) for __aeabi_memcpy
    nwk_master.o(i.nwk_master_set_root_key) refers to nwk_master.o(.bss) for g_sNwkMasterWork
    nwk_master.o(i.nwk_master_uart_parse) refers to nwk_bsp.o(i.nwk_find_head) for nwk_find_head
    nwk_master.o(i.nwk_master_uart_parse) refers to nwk_bsp.o(i.nwk_crc16) for nwk_crc16
    nwk_master.o(i.nwk_master_uart_parse) refers to nwk_master.o(i.nwk_master_lora_parse) for nwk_master_lora_parse
    nwk_master.o(i.nwk_master_uart_send_level) refers to nwk_master.o(i.nwk_master_find_slave) for nwk_master_find_slave
    nwk_master.o(i.nwk_master_uart_send_level) refers to memcpya.o(.text) for __aeabi_memcpy
    nwk_master.o(i.nwk_master_uart_send_level) refers to nwk_bsp.o(i.nwk_crc16) for nwk_crc16
    nwk_master.o(i.nwk_master_uart_send_level) refers to nwk_master.o(.bss) for make_buff
    stm32f10x_bkp.o(i.BKP_DeInit) refers to stm32f10x_rcc.o(i.RCC_BackupResetCmd) for RCC_BackupResetCmd
    stm32f10x_flash.o(i.FLASH_EnableWriteProtection) refers to stm32f10x_flash.o(i.FLASH_WaitForLastOperation) for FLASH_WaitForLastOperation
    stm32f10x_flash.o(i.FLASH_EraseAllBank1Pages) refers to stm32f10x_flash.o(i.FLASH_WaitForLastBank1Operation) for FLASH_WaitForLastBank1Operation
    stm32f10x_flash.o(i.FLASH_EraseAllPages) refers to stm32f10x_flash.o(i.FLASH_WaitForLastOperation) for FLASH_WaitForLastOperation
    stm32f10x_flash.o(i.FLASH_EraseOptionBytes) refers to stm32f10x_flash.o(i.FLASH_GetReadOutProtectionStatus) for FLASH_GetReadOutProtectionStatus
    stm32f10x_flash.o(i.FLASH_EraseOptionBytes) refers to stm32f10x_flash.o(i.FLASH_WaitForLastOperation) for FLASH_WaitForLastOperation
    stm32f10x_flash.o(i.FLASH_ErasePage) refers to stm32f10x_flash.o(i.FLASH_WaitForLastOperation) for FLASH_WaitForLastOperation
    stm32f10x_flash.o(i.FLASH_ProgramHalfWord) refers to stm32f10x_flash.o(i.FLASH_WaitForLastOperation) for FLASH_WaitForLastOperation
    stm32f10x_flash.o(i.FLASH_ProgramOptionByteData) refers to stm32f10x_flash.o(i.FLASH_WaitForLastOperation) for FLASH_WaitForLastOperation
    stm32f10x_flash.o(i.FLASH_ProgramWord) refers to stm32f10x_flash.o(i.FLASH_WaitForLastOperation) for FLASH_WaitForLastOperation
    stm32f10x_flash.o(i.FLASH_ReadOutProtection) refers to stm32f10x_flash.o(i.FLASH_WaitForLastOperation) for FLASH_WaitForLastOperation
    stm32f10x_flash.o(i.FLASH_UserOptionByteConfig) refers to stm32f10x_flash.o(i.FLASH_WaitForLastOperation) for FLASH_WaitForLastOperation
    stm32f10x_flash.o(i.FLASH_WaitForLastBank1Operation) refers to stm32f10x_flash.o(i.FLASH_GetBank1Status) for FLASH_GetBank1Status
    stm32f10x_flash.o(i.FLASH_WaitForLastOperation) refers to stm32f10x_flash.o(i.FLASH_GetBank1Status) for FLASH_GetBank1Status
    stm32f10x_gpio.o(i.GPIO_AFIODeInit) refers to stm32f10x_rcc.o(i.RCC_APB2PeriphResetCmd) for RCC_APB2PeriphResetCmd
    stm32f10x_gpio.o(i.GPIO_DeInit) refers to stm32f10x_rcc.o(i.RCC_APB2PeriphResetCmd) for RCC_APB2PeriphResetCmd
    stm32f10x_pwr.o(i.PWR_DeInit) refers to stm32f10x_rcc.o(i.RCC_APB1PeriphResetCmd) for RCC_APB1PeriphResetCmd
    stm32f10x_rcc.o(i.RCC_GetClocksFreq) refers to stm32f10x_rcc.o(.data) for APBAHBPrescTable
    stm32f10x_rcc.o(i.RCC_WaitForHSEStartUp) refers to stm32f10x_rcc.o(i.RCC_GetFlagStatus) for RCC_GetFlagStatus
    stm32f10x_rtc.o(i.RTC_SetAlarm) refers to stm32f10x_rtc.o(i.RTC_EnterConfigMode) for RTC_EnterConfigMode
    stm32f10x_rtc.o(i.RTC_SetAlarm) refers to stm32f10x_rtc.o(i.RTC_ExitConfigMode) for RTC_ExitConfigMode
    stm32f10x_rtc.o(i.RTC_SetCounter) refers to stm32f10x_rtc.o(i.RTC_EnterConfigMode) for RTC_EnterConfigMode
    stm32f10x_rtc.o(i.RTC_SetCounter) refers to stm32f10x_rtc.o(i.RTC_ExitConfigMode) for RTC_ExitConfigMode
    stm32f10x_rtc.o(i.RTC_SetPrescaler) refers to stm32f10x_rtc.o(i.RTC_EnterConfigMode) for RTC_EnterConfigMode
    stm32f10x_rtc.o(i.RTC_SetPrescaler) refers to stm32f10x_rtc.o(i.RTC_ExitConfigMode) for RTC_ExitConfigMode
    stm32f10x_spi.o(i.I2S_Init) refers to stm32f10x_rcc.o(i.RCC_GetClocksFreq) for RCC_GetClocksFreq
    stm32f10x_spi.o(i.SPI_I2S_DeInit) refers to stm32f10x_rcc.o(i.RCC_APB2PeriphResetCmd) for RCC_APB2PeriphResetCmd
    stm32f10x_spi.o(i.SPI_I2S_DeInit) refers to stm32f10x_rcc.o(i.RCC_APB1PeriphResetCmd) for RCC_APB1PeriphResetCmd
    stm32f10x_usart.o(i.USART_DeInit) refers to stm32f10x_rcc.o(i.RCC_APB2PeriphResetCmd) for RCC_APB2PeriphResetCmd
    stm32f10x_usart.o(i.USART_DeInit) refers to stm32f10x_rcc.o(i.RCC_APB1PeriphResetCmd) for RCC_APB1PeriphResetCmd
    stm32f10x_usart.o(i.USART_Init) refers to stm32f10x_rcc.o(i.RCC_GetClocksFreq) for RCC_GetClocksFreq
    stm32f10x_wwdg.o(i.WWDG_DeInit) refers to stm32f10x_rcc.o(i.RCC_APB1PeriphResetCmd) for RCC_APB1PeriphResetCmd
    entry.o(.ARM.Collect$$$$00000000) refers (Special) to entry10a.o(.ARM.Collect$$$$0000000D) for __rt_final_cpp
    entry.o(.ARM.Collect$$$$00000000) refers (Special) to entry11a.o(.ARM.Collect$$$$0000000F) for __rt_final_exit
    entry.o(.ARM.Collect$$$$00000000) refers (Special) to entry7b.o(.ARM.Collect$$$$00000008) for _main_clock
    entry.o(.ARM.Collect$$$$00000000) refers (Special) to entry8b.o(.ARM.Collect$$$$0000000A) for _main_cpp_init
    entry.o(.ARM.Collect$$$$00000000) refers (Special) to entry9a.o(.ARM.Collect$$$$0000000B) for _main_init
    entry.o(.ARM.Collect$$$$00000000) refers (Special) to entry5.o(.ARM.Collect$$$$00000004) for _main_scatterload
    entry.o(.ARM.Collect$$$$00000000) refers (Special) to entry2.o(.ARM.Collect$$$$00000001) for _main_stk
    rand.o(.text) refers to rand.o(.data) for .data
    printfb.o(i.__0fprintf$bare) refers to printfb.o(i._printf_core) for _printf_core
    printfb.o(i.__0fprintf$bare) refers to drv_uart.o(i.fputc) for fputc
    printfb.o(i.__0printf$bare) refers to printfb.o(i._printf_core) for _printf_core
    printfb.o(i.__0printf$bare) refers to drv_uart.o(i.fputc) for fputc
    printfb.o(i.__0printf$bare) refers to stdout.o(.data) for __stdout
    printfb.o(i.__0snprintf$bare) refers to printfb.o(i._printf_core) for _printf_core
    printfb.o(i.__0snprintf$bare) refers to printfb.o(i._snputc) for _snputc
    printfb.o(i.__0sprintf$bare) refers to printfb.o(i._printf_core) for _printf_core
    printfb.o(i.__0sprintf$bare) refers to printfb.o(i._sputc) for _sputc
    printfb.o(i.__0vfprintf$bare) refers to printfb.o(i._printf_core) for _printf_core
    printfb.o(i.__0vfprintf$bare) refers to drv_uart.o(i.fputc) for fputc
    printfb.o(i.__0vprintf$bare) refers to printfb.o(i._printf_core) for _printf_core
    printfb.o(i.__0vprintf$bare) refers to drv_uart.o(i.fputc) for fputc
    printfb.o(i.__0vprintf$bare) refers to stdout.o(.data) for __stdout
    printfb.o(i.__0vsnprintf$bare) refers to printfb.o(i._printf_core) for _printf_core
    printfb.o(i.__0vsnprintf$bare) refers to printfb.o(i._snputc) for _snputc
    printfb.o(i.__0vsprintf$bare) refers to printfb.o(i._printf_core) for _printf_core
    printfb.o(i.__0vsprintf$bare) refers to printfb.o(i._sputc) for _sputc
    printf0.o(i.__0fprintf$0) refers to printf0.o(i._printf_core) for _printf_core
    printf0.o(i.__0fprintf$0) refers to drv_uart.o(i.fputc) for fputc
    printf0.o(i.__0printf$0) refers to printf0.o(i._printf_core) for _printf_core
    printf0.o(i.__0printf$0) refers to drv_uart.o(i.fputc) for fputc
    printf0.o(i.__0printf$0) refers to stdout.o(.data) for __stdout
    printf0.o(i.__0snprintf$0) refers to printf0.o(i._printf_core) for _printf_core
    printf0.o(i.__0snprintf$0) refers to printf0.o(i._snputc) for _snputc
    printf0.o(i.__0sprintf$0) refers to printf0.o(i._printf_core) for _printf_core
    printf0.o(i.__0sprintf$0) refers to printf0.o(i._sputc) for _sputc
    printf0.o(i.__0vfprintf$0) refers to printf0.o(i._printf_core) for _printf_core
    printf0.o(i.__0vfprintf$0) refers to drv_uart.o(i.fputc) for fputc
    printf0.o(i.__0vprintf$0) refers to printf0.o(i._printf_core) for _printf_core
    printf0.o(i.__0vprintf$0) refers to drv_uart.o(i.fputc) for fputc
    printf0.o(i.__0vprintf$0) refers to stdout.o(.data) for __stdout
    printf0.o(i.__0vsnprintf$0) refers to printf0.o(i._printf_core) for _printf_core
    printf0.o(i.__0vsnprintf$0) refers to printf0.o(i._snputc) for _snputc
    printf0.o(i.__0vsprintf$0) refers to printf0.o(i._printf_core) for _printf_core
    printf0.o(i.__0vsprintf$0) refers to printf0.o(i._sputc) for _sputc
    printf1.o(i.__0fprintf$1) refers to printf1.o(i._printf_core) for _printf_core
    printf1.o(i.__0fprintf$1) refers to drv_uart.o(i.fputc) for fputc
    printf1.o(i.__0printf$1) refers to printf1.o(i._printf_core) for _printf_core
    printf1.o(i.__0printf$1) refers to drv_uart.o(i.fputc) for fputc
    printf1.o(i.__0printf$1) refers to stdout.o(.data) for __stdout
    printf1.o(i.__0snprintf$1) refers to printf1.o(i._printf_core) for _printf_core
    printf1.o(i.__0snprintf$1) refers to printf1.o(i._snputc) for _snputc
    printf1.o(i.__0sprintf$1) refers to printf1.o(i._printf_core) for _printf_core
    printf1.o(i.__0sprintf$1) refers to printf1.o(i._sputc) for _sputc
    printf1.o(i.__0vfprintf$1) refers to printf1.o(i._printf_core) for _printf_core
    printf1.o(i.__0vfprintf$1) refers to drv_uart.o(i.fputc) for fputc
    printf1.o(i.__0vprintf$1) refers to printf1.o(i._printf_core) for _printf_core
    printf1.o(i.__0vprintf$1) refers to drv_uart.o(i.fputc) for fputc
    printf1.o(i.__0vprintf$1) refers to stdout.o(.data) for __stdout
    printf1.o(i.__0vsnprintf$1) refers to printf1.o(i._printf_core) for _printf_core
    printf1.o(i.__0vsnprintf$1) refers to printf1.o(i._snputc) for _snputc
    printf1.o(i.__0vsprintf$1) refers to printf1.o(i._printf_core) for _printf_core
    printf1.o(i.__0vsprintf$1) refers to printf1.o(i._sputc) for _sputc
    printf1.o(i._printf_core) refers to uidiv.o(.text) for __aeabi_uidivmod
    printf2.o(i.__0fprintf$2) refers to printf2.o(i._printf_core) for _printf_core
    printf2.o(i.__0fprintf$2) refers to drv_uart.o(i.fputc) for fputc
    printf2.o(i.__0printf$2) refers to printf2.o(i._printf_core) for _printf_core
    printf2.o(i.__0printf$2) refers to drv_uart.o(i.fputc) for fputc
    printf2.o(i.__0printf$2) refers to stdout.o(.data) for __stdout
    printf2.o(i.__0snprintf$2) refers to printf2.o(i._printf_core) for _printf_core
    printf2.o(i.__0snprintf$2) refers to printf2.o(i._snputc) for _snputc
    printf2.o(i.__0sprintf$2) refers to printf2.o(i._printf_core) for _printf_core
    printf2.o(i.__0sprintf$2) refers to printf2.o(i._sputc) for _sputc
    printf2.o(i.__0vfprintf$2) refers to printf2.o(i._printf_core) for _printf_core
    printf2.o(i.__0vfprintf$2) refers to drv_uart.o(i.fputc) for fputc
    printf2.o(i.__0vprintf$2) refers to printf2.o(i._printf_core) for _printf_core
    printf2.o(i.__0vprintf$2) refers to drv_uart.o(i.fputc) for fputc
    printf2.o(i.__0vprintf$2) refers to stdout.o(.data) for __stdout
    printf2.o(i.__0vsnprintf$2) refers to printf2.o(i._printf_core) for _printf_core
    printf2.o(i.__0vsnprintf$2) refers to printf2.o(i._snputc) for _snputc
    printf2.o(i.__0vsprintf$2) refers to printf2.o(i._printf_core) for _printf_core
    printf2.o(i.__0vsprintf$2) refers to printf2.o(i._sputc) for _sputc
    printf3.o(i.__0fprintf$3) refers to printf3.o(i._printf_core) for _printf_core
    printf3.o(i.__0fprintf$3) refers to drv_uart.o(i.fputc) for fputc
    printf3.o(i.__0printf$3) refers to printf3.o(i._printf_core) for _printf_core
    printf3.o(i.__0printf$3) refers to drv_uart.o(i.fputc) for fputc
    printf3.o(i.__0printf$3) refers to stdout.o(.data) for __stdout
    printf3.o(i.__0snprintf$3) refers to printf3.o(i._printf_core) for _printf_core
    printf3.o(i.__0snprintf$3) refers to printf3.o(i._snputc) for _snputc
    printf3.o(i.__0sprintf$3) refers to printf3.o(i._printf_core) for _printf_core
    printf3.o(i.__0sprintf$3) refers to printf3.o(i._sputc) for _sputc
    printf3.o(i.__0vfprintf$3) refers to printf3.o(i._printf_core) for _printf_core
    printf3.o(i.__0vfprintf$3) refers to drv_uart.o(i.fputc) for fputc
    printf3.o(i.__0vprintf$3) refers to printf3.o(i._printf_core) for _printf_core
    printf3.o(i.__0vprintf$3) refers to drv_uart.o(i.fputc) for fputc
    printf3.o(i.__0vprintf$3) refers to stdout.o(.data) for __stdout
    printf3.o(i.__0vsnprintf$3) refers to printf3.o(i._printf_core) for _printf_core
    printf3.o(i.__0vsnprintf$3) refers to printf3.o(i._snputc) for _snputc
    printf3.o(i.__0vsprintf$3) refers to printf3.o(i._printf_core) for _printf_core
    printf3.o(i.__0vsprintf$3) refers to printf3.o(i._sputc) for _sputc
    printf3.o(i._printf_core) refers to uidiv.o(.text) for __aeabi_uidivmod
    printf4.o(i.__0fprintf$4) refers to printf4.o(i._printf_core) for _printf_core
    printf4.o(i.__0fprintf$4) refers to drv_uart.o(i.fputc) for fputc
    printf4.o(i.__0printf$4) refers to printf4.o(i._printf_core) for _printf_core
    printf4.o(i.__0printf$4) refers to drv_uart.o(i.fputc) for fputc
    printf4.o(i.__0printf$4) refers to stdout.o(.data) for __stdout
    printf4.o(i.__0snprintf$4) refers to printf4.o(i._printf_core) for _printf_core
    printf4.o(i.__0snprintf$4) refers to printf4.o(i._snputc) for _snputc
    printf4.o(i.__0sprintf$4) refers to printf4.o(i._printf_core) for _printf_core
    printf4.o(i.__0sprintf$4) refers to printf4.o(i._sputc) for _sputc
    printf4.o(i.__0vfprintf$4) refers to printf4.o(i._printf_core) for _printf_core
    printf4.o(i.__0vfprintf$4) refers to drv_uart.o(i.fputc) for fputc
    printf4.o(i.__0vprintf$4) refers to printf4.o(i._printf_core) for _printf_core
    printf4.o(i.__0vprintf$4) refers to drv_uart.o(i.fputc) for fputc
    printf4.o(i.__0vprintf$4) refers to stdout.o(.data) for __stdout
    printf4.o(i.__0vsnprintf$4) refers to printf4.o(i._printf_core) for _printf_core
    printf4.o(i.__0vsnprintf$4) refers to printf4.o(i._snputc) for _snputc
    printf4.o(i.__0vsprintf$4) refers to printf4.o(i._printf_core) for _printf_core
    printf4.o(i.__0vsprintf$4) refers to printf4.o(i._sputc) for _sputc
    printf4.o(i._printf_core) refers to uldiv.o(.text) for __aeabi_uldivmod
    printf5.o(i.__0fprintf$5) refers to printf5.o(i._printf_core) for _printf_core
    printf5.o(i.__0fprintf$5) refers to drv_uart.o(i.fputc) for fputc
    printf5.o(i.__0printf$5) refers to printf5.o(i._printf_core) for _printf_core
    printf5.o(i.__0printf$5) refers to drv_uart.o(i.fputc) for fputc
    printf5.o(i.__0printf$5) refers to stdout.o(.data) for __stdout
    printf5.o(i.__0snprintf$5) refers to printf5.o(i._printf_core) for _printf_core
    printf5.o(i.__0snprintf$5) refers to printf5.o(i._snputc) for _snputc
    printf5.o(i.__0sprintf$5) refers to printf5.o(i._printf_core) for _printf_core
    printf5.o(i.__0sprintf$5) refers to printf5.o(i._sputc) for _sputc
    printf5.o(i.__0vfprintf$5) refers to printf5.o(i._printf_core) for _printf_core
    printf5.o(i.__0vfprintf$5) refers to drv_uart.o(i.fputc) for fputc
    printf5.o(i.__0vprintf$5) refers to printf5.o(i._printf_core) for _printf_core
    printf5.o(i.__0vprintf$5) refers to drv_uart.o(i.fputc) for fputc
    printf5.o(i.__0vprintf$5) refers to stdout.o(.data) for __stdout
    printf5.o(i.__0vsnprintf$5) refers to printf5.o(i._printf_core) for _printf_core
    printf5.o(i.__0vsnprintf$5) refers to printf5.o(i._snputc) for _snputc
    printf5.o(i.__0vsprintf$5) refers to printf5.o(i._printf_core) for _printf_core
    printf5.o(i.__0vsprintf$5) refers to printf5.o(i._sputc) for _sputc
    printf5.o(i._printf_core) refers to uldiv.o(.text) for __aeabi_uldivmod
    printf6.o(i.__0fprintf$6) refers to printf6.o(i._printf_core) for _printf_core
    printf6.o(i.__0fprintf$6) refers to drv_uart.o(i.fputc) for fputc
    printf6.o(i.__0printf$6) refers to printf6.o(i._printf_core) for _printf_core
    printf6.o(i.__0printf$6) refers to drv_uart.o(i.fputc) for fputc
    printf6.o(i.__0printf$6) refers to stdout.o(.data) for __stdout
    printf6.o(i.__0snprintf$6) refers to printf6.o(i._printf_core) for _printf_core
    printf6.o(i.__0snprintf$6) refers to printf6.o(i._snputc) for _snputc
    printf6.o(i.__0sprintf$6) refers to printf6.o(i._printf_core) for _printf_core
    printf6.o(i.__0sprintf$6) refers to printf6.o(i._sputc) for _sputc
    printf6.o(i.__0vfprintf$6) refers to printf6.o(i._printf_core) for _printf_core
    printf6.o(i.__0vfprintf$6) refers to drv_uart.o(i.fputc) for fputc
    printf6.o(i.__0vprintf$6) refers to printf6.o(i._printf_core) for _printf_core
    printf6.o(i.__0vprintf$6) refers to drv_uart.o(i.fputc) for fputc
    printf6.o(i.__0vprintf$6) refers to stdout.o(.data) for __stdout
    printf6.o(i.__0vsnprintf$6) refers to printf6.o(i._printf_core) for _printf_core
    printf6.o(i.__0vsnprintf$6) refers to printf6.o(i._snputc) for _snputc
    printf6.o(i.__0vsprintf$6) refers to printf6.o(i._printf_core) for _printf_core
    printf6.o(i.__0vsprintf$6) refers to printf6.o(i._sputc) for _sputc
    printf6.o(i._printf_core) refers to printf6.o(i._printf_pre_padding) for _printf_pre_padding
    printf6.o(i._printf_core) refers to uidiv.o(.text) for __aeabi_uidivmod
    printf6.o(i._printf_core) refers to printf6.o(i._printf_post_padding) for _printf_post_padding
    printf7.o(i.__0fprintf$7) refers to printf7.o(i._printf_core) for _printf_core
    printf7.o(i.__0fprintf$7) refers to drv_uart.o(i.fputc) for fputc
    printf7.o(i.__0printf$7) refers to printf7.o(i._printf_core) for _printf_core
    printf7.o(i.__0printf$7) refers to drv_uart.o(i.fputc) for fputc
    printf7.o(i.__0printf$7) refers to stdout.o(.data) for __stdout
    printf7.o(i.__0snprintf$7) refers to printf7.o(i._printf_core) for _printf_core
    printf7.o(i.__0snprintf$7) refers to printf7.o(i._snputc) for _snputc
    printf7.o(i.__0sprintf$7) refers to printf7.o(i._printf_core) for _printf_core
    printf7.o(i.__0sprintf$7) refers to printf7.o(i._sputc) for _sputc
    printf7.o(i.__0vfprintf$7) refers to printf7.o(i._printf_core) for _printf_core
    printf7.o(i.__0vfprintf$7) refers to drv_uart.o(i.fputc) for fputc
    printf7.o(i.__0vprintf$7) refers to printf7.o(i._printf_core) for _printf_core
    printf7.o(i.__0vprintf$7) refers to drv_uart.o(i.fputc) for fputc
    printf7.o(i.__0vprintf$7) refers to stdout.o(.data) for __stdout
    printf7.o(i.__0vsnprintf$7) refers to printf7.o(i._printf_core) for _printf_core
    printf7.o(i.__0vsnprintf$7) refers to printf7.o(i._snputc) for _snputc
    printf7.o(i.__0vsprintf$7) refers to printf7.o(i._printf_core) for _printf_core
    printf7.o(i.__0vsprintf$7) refers to printf7.o(i._sputc) for _sputc
    printf7.o(i._printf_core) refers to printf7.o(i._printf_pre_padding) for _printf_pre_padding
    printf7.o(i._printf_core) refers to uldiv.o(.text) for __aeabi_uldivmod
    printf7.o(i._printf_core) refers to printf7.o(i._printf_post_padding) for _printf_post_padding
    printf8.o(i.__0fprintf$8) refers to printf8.o(i._printf_core) for _printf_core
    printf8.o(i.__0fprintf$8) refers to drv_uart.o(i.fputc) for fputc
    printf8.o(i.__0printf$8) refers to printf8.o(i._printf_core) for _printf_core
    printf8.o(i.__0printf$8) refers to drv_uart.o(i.fputc) for fputc
    printf8.o(i.__0printf$8) refers to stdout.o(.data) for __stdout
    printf8.o(i.__0snprintf$8) refers to printf8.o(i._printf_core) for _printf_core
    printf8.o(i.__0snprintf$8) refers to printf8.o(i._snputc) for _snputc
    printf8.o(i.__0sprintf$8) refers to printf8.o(i._printf_core) for _printf_core
    printf8.o(i.__0sprintf$8) refers to printf8.o(i._sputc) for _sputc
    printf8.o(i.__0vfprintf$8) refers to printf8.o(i._printf_core) for _printf_core
    printf8.o(i.__0vfprintf$8) refers to drv_uart.o(i.fputc) for fputc
    printf8.o(i.__0vprintf$8) refers to printf8.o(i._printf_core) for _printf_core
    printf8.o(i.__0vprintf$8) refers to drv_uart.o(i.fputc) for fputc
    printf8.o(i.__0vprintf$8) refers to stdout.o(.data) for __stdout
    printf8.o(i.__0vsnprintf$8) refers to printf8.o(i._printf_core) for _printf_core
    printf8.o(i.__0vsnprintf$8) refers to printf8.o(i._snputc) for _snputc
    printf8.o(i.__0vsprintf$8) refers to printf8.o(i._printf_core) for _printf_core
    printf8.o(i.__0vsprintf$8) refers to printf8.o(i._sputc) for _sputc
    printf8.o(i._printf_core) refers to printf8.o(i._printf_pre_padding) for _printf_pre_padding
    printf8.o(i._printf_core) refers to uldiv.o(.text) for __aeabi_uldivmod
    printf8.o(i._printf_core) refers to printf8.o(i._printf_post_padding) for _printf_post_padding
    printfa.o(i.__0fprintf) refers (Special) to iusefp.o(.text) for __I$use$fp
    printfa.o(i.__0fprintf) refers to printfa.o(i._printf_core) for _printf_core
    printfa.o(i.__0fprintf) refers to drv_uart.o(i.fputc) for fputc
    printfa.o(i.__0printf) refers (Special) to iusefp.o(.text) for __I$use$fp
    printfa.o(i.__0printf) refers to printfa.o(i._printf_core) for _printf_core
    printfa.o(i.__0printf) refers to drv_uart.o(i.fputc) for fputc
    printfa.o(i.__0printf) refers to stdout.o(.data) for __stdout
    printfa.o(i.__0snprintf) refers (Special) to iusefp.o(.text) for __I$use$fp
    printfa.o(i.__0snprintf) refers to printfa.o(i._printf_core) for _printf_core
    printfa.o(i.__0snprintf) refers to printfa.o(i._snputc) for _snputc
    printfa.o(i.__0sprintf) refers (Special) to iusefp.o(.text) for __I$use$fp
    printfa.o(i.__0sprintf) refers to printfa.o(i._printf_core) for _printf_core
    printfa.o(i.__0sprintf) refers to printfa.o(i._sputc) for _sputc
    printfa.o(i.__0vfprintf) refers (Special) to iusefp.o(.text) for __I$use$fp
    printfa.o(i.__0vfprintf) refers to printfa.o(i._printf_core) for _printf_core
    printfa.o(i.__0vfprintf) refers to drv_uart.o(i.fputc) for fputc
    printfa.o(i.__0vprintf) refers (Special) to iusefp.o(.text) for __I$use$fp
    printfa.o(i.__0vprintf) refers to printfa.o(i._printf_core) for _printf_core
    printfa.o(i.__0vprintf) refers to drv_uart.o(i.fputc) for fputc
    printfa.o(i.__0vprintf) refers to stdout.o(.data) for __stdout
    printfa.o(i.__0vsnprintf) refers (Special) to iusefp.o(.text) for __I$use$fp
    printfa.o(i.__0vsnprintf) refers to printfa.o(i._printf_core) for _printf_core
    printfa.o(i.__0vsnprintf) refers to printfa.o(i._snputc) for _snputc
    printfa.o(i.__0vsprintf) refers (Special) to iusefp.o(.text) for __I$use$fp
    printfa.o(i.__0vsprintf) refers to printfa.o(i._printf_core) for _printf_core
    printfa.o(i.__0vsprintf) refers to printfa.o(i._sputc) for _sputc
    printfa.o(i._fp_digits) refers (Special) to iusefp.o(.text) for __I$use$fp
    printfa.o(i._fp_digits) refers to dmul.o(.text) for __aeabi_dmul
    printfa.o(i._fp_digits) refers to ddiv.o(.text) for __aeabi_ddiv
    printfa.o(i._fp_digits) refers to cdrcmple.o(.text) for __aeabi_cdrcmple
    printfa.o(i._fp_digits) refers to dadd.o(.text) for __aeabi_dadd
    printfa.o(i._fp_digits) refers to dfixul.o(.text) for __aeabi_d2ulz
    printfa.o(i._fp_digits) refers to uldiv.o(.text) for __aeabi_uldivmod
    printfa.o(i._printf_core) refers (Special) to iusefp.o(.text) for __I$use$fp
    printfa.o(i._printf_core) refers to printfa.o(i._printf_pre_padding) for _printf_pre_padding
    printfa.o(i._printf_core) refers to uldiv.o(.text) for __aeabi_uldivmod
    printfa.o(i._printf_core) refers to printfa.o(i._printf_post_padding) for _printf_post_padding
    printfa.o(i._printf_core) refers to printfa.o(i._fp_digits) for _fp_digits
    printfa.o(i._printf_core) refers to uidiv.o(.text) for __aeabi_uidivmod
    printfa.o(i._printf_post_padding) refers (Special) to iusefp.o(.text) for __I$use$fp
    printfa.o(i._printf_pre_padding) refers (Special) to iusefp.o(.text) for __I$use$fp
    printfa.o(i._snputc) refers (Special) to iusefp.o(.text) for __I$use$fp
    printfa.o(i._sputc) refers (Special) to iusefp.o(.text) for __I$use$fp
    malloc.o(i.free) refers to mvars.o(.data) for __microlib_freelist
    malloc.o(i.malloc) refers to mvars.o(.data) for __microlib_freelist_initialised
    malloc.o(i.malloc) refers to mvars.o(.data) for __microlib_freelist
    malloc.o(i.malloc) refers to startup_stm32f10x_md.o(HEAP) for __heap_base
    mallocr.o(i.__free$realloc) refers to mvars.o(.data) for __microlib_freelist
    mallocr.o(i.__malloc$realloc) refers to mallocr.o(i.internal_alloc) for internal_alloc
    mallocr.o(i.__malloc$realloc) refers to mvars.o(.data) for __microlib_freelist_initialised
    mallocr.o(i.__malloc$realloc) refers to startup_stm32f10x_md.o(HEAP) for __heap_base
    mallocr.o(i.__malloc$realloc) refers to mvars.o(.data) for __microlib_freelist
    mallocr.o(i.internal_alloc) refers to memcpya.o(.text) for __aeabi_memcpy
    mallocr.o(i.internal_alloc) refers to mvars.o(.data) for __microlib_freelist
    mallocr.o(i.realloc) refers to mallocr.o(i.__free$realloc) for __free$realloc
    mallocr.o(i.realloc) refers to mallocr.o(i.internal_alloc) for internal_alloc
    mallocr.o(i.realloc) refers to mallocr.o(i.__malloc$realloc) for __malloc$realloc
    mallocr.o(i.realloc) refers to mvars.o(.data) for __microlib_freelist
    malloca.o(i.__aligned_malloc) refers to mvars.o(.data) for __microlib_freelist_initialised
    malloca.o(i.__aligned_malloc) refers to mvars.o(.data) for __microlib_freelist
    malloca.o(i.__aligned_malloc) refers to startup_stm32f10x_md.o(HEAP) for __heap_base
    malloca.o(i.__free$memalign) refers to mvars.o(.data) for __microlib_freelist
    malloca.o(i.__malloc$memalign) refers to malloca.o(i.__aligned_malloc) for __aligned_malloc
    mallocra.o(i.__aligned_malloc$realloc) refers to mallocra.o(i.internal_alloc) for internal_alloc
    mallocra.o(i.__aligned_malloc$realloc) refers to mvars.o(.data) for __microlib_freelist_initialised
    mallocra.o(i.__aligned_malloc$realloc) refers to startup_stm32f10x_md.o(HEAP) for __heap_base
    mallocra.o(i.__aligned_malloc$realloc) refers to mvars.o(.data) for __microlib_freelist
    mallocra.o(i.__free$realloc$memalign) refers to mvars.o(.data) for __microlib_freelist
    mallocra.o(i.__malloc$realloc$memalign) refers to mallocra.o(i.__aligned_malloc$realloc) for __aligned_malloc$realloc
    mallocra.o(i.__realloc$memalign) refers to mallocra.o(i.__free$realloc$memalign) for __free$realloc$memalign
    mallocra.o(i.__realloc$memalign) refers to mallocra.o(i.internal_alloc) for internal_alloc
    mallocra.o(i.__realloc$memalign) refers to mallocra.o(i.__malloc$realloc$memalign) for __malloc$realloc$memalign
    mallocra.o(i.__realloc$memalign) refers to mvars.o(.data) for __microlib_freelist
    mallocra.o(i.internal_alloc) refers to memcpya.o(.text) for __aeabi_memcpy
    mallocra.o(i.internal_alloc) refers to mvars.o(.data) for __microlib_freelist
    fmul.o(.text) refers (Special) to iusefp.o(.text) for __I$use$fp
    fdiv.o(.text) refers (Special) to iusefp.o(.text) for __I$use$fp
    fdiv.o(.text) refers to fepilogue.o(.text) for _float_round
    dadd.o(.text) refers (Special) to iusefp.o(.text) for __I$use$fp
    dadd.o(.text) refers to llshl.o(.text) for __aeabi_llsl
    dadd.o(.text) refers to llsshr.o(.text) for __aeabi_lasr
    dadd.o(.text) refers to depilogue.o(.text) for _double_epilogue
    dmul.o(.text) refers (Special) to iusefp.o(.text) for __I$use$fp
    dmul.o(.text) refers to depilogue.o(.text) for _double_epilogue
    ddiv.o(.text) refers (Special) to iusefp.o(.text) for __I$use$fp
    ddiv.o(.text) refers to depilogue.o(.text) for _double_round
    ffltui.o(.text) refers (Special) to iusefp.o(.text) for __I$use$fp
    ffltui.o(.text) refers to fepilogue.o(.text) for _float_epilogue
    dflti.o(.text) refers (Special) to iusefp.o(.text) for __I$use$fp
    dflti.o(.text) refers to depilogue.o(.text) for _double_epilogue
    dfltui.o(.text) refers (Special) to iusefp.o(.text) for __I$use$fp
    dfltui.o(.text) refers to depilogue.o(.text) for _double_epilogue
    ffixui.o(.text) refers (Special) to iusefp.o(.text) for __I$use$fp
    dfixui.o(.text) refers (Special) to iusefp.o(.text) for __I$use$fp
    dfixui.o(.text) refers to llushr.o(.text) for __aeabi_llsr
    entry2.o(.ARM.Collect$$$$00000001) refers to entry2.o(.ARM.Collect$$$$00002712) for __lit__00000000
    entry2.o(.ARM.Collect$$$$00002712) refers to startup_stm32f10x_md.o(STACK) for __initial_sp
    entry2.o(__vectab_stack_and_reset_area) refers to startup_stm32f10x_md.o(STACK) for __initial_sp
    entry2.o(__vectab_stack_and_reset_area) refers to entry.o(.ARM.Collect$$$$00000000) for __main
    entry5.o(.ARM.Collect$$$$00000004) refers to init.o(.text) for __scatterload
    entry9a.o(.ARM.Collect$$$$0000000B) refers to components.o(i.$Sub$$main) for main
    entry9b.o(.ARM.Collect$$$$0000000C) refers to components.o(i.$Sub$$main) for main
    uldiv.o(.text) refers to llushr.o(.text) for __aeabi_llsr
    uldiv.o(.text) refers to llshl.o(.text) for __aeabi_llsl
    depilogue.o(.text) refers to llshl.o(.text) for __aeabi_llsl
    depilogue.o(.text) refers to llushr.o(.text) for __aeabi_llsr
    dfixul.o(.text) refers to llushr.o(.text) for __aeabi_llsr
    dfixul.o(.text) refers to llshl.o(.text) for __aeabi_llsl
    init.o(.text) refers to entry5.o(.ARM.Collect$$$$00000004) for __main_after_scatterload


==============================================================================

Removing Unused input sections from the image.

    Removing core_cm3.o(.emb_text), (32 bytes).
    Removing startup_stm32f10x_md.o(HEAP), (512 bytes).
    Removing stm32f10x_it.o(i.TIM5_IRQHandler), (2 bytes).
    Removing stm32f10x_it.o(.data), (4 bytes).
    Removing system_stm32f10x.o(i.SetSysClock), (8 bytes).
    Removing system_stm32f10x.o(i.SetSysClockTo72), (224 bytes).
    Removing user_app.o(i.app_uart_send), (18 bytes).
    Removing drv_common.o(i.EEPROM_Read), (76 bytes).
    Removing drv_common.o(i.EEPROM_Write), (96 bytes).
    Removing drv_common.o(i.delay_us), (32 bytes).
    Removing drv_common.o(i.drv_check_sum), (30 bytes).
    Removing drv_common.o(i.drv_dec_string_to_num), (44 bytes).
    Removing drv_common.o(i.drv_get_chip_uid), (32 bytes).
    Removing drv_common.o(i.drv_get_rtc_counter), (8 bytes).
    Removing drv_common.o(i.drv_set_sec_counter), (12 bytes).
    Removing drv_common.o(i.drv_xor_cal), (26 bytes).
    Removing drv_common.o(i.memstr), (72 bytes).
    Removing drv_common.o(.bss), (1024 bytes).
    Removing drv_uart.o(i.UART1_Send), (68 bytes).
    Removing drv_uart.o(i.UART2_Send), (68 bytes).
    Removing drv_uart.o(i.UART3_Send), (68 bytes).
    Removing drv_uart.o(i.UART_Send), (108 bytes).
    Removing drv_iic.o(i.IIC_Ack), (62 bytes).
    Removing drv_iic.o(i.IIC_GPIOInit), (62 bytes).
    Removing drv_iic.o(i.IIC_NAck), (42 bytes).
    Removing drv_iic.o(i.IIC_ReadByte), (96 bytes).
    Removing drv_iic.o(i.IIC_SdaInMode), (26 bytes).
    Removing drv_iic.o(i.IIC_SdaOutMode), (32 bytes).
    Removing drv_iic.o(i.IIC_SetDelayTime), (4 bytes).
    Removing drv_iic.o(i.IIC_Start), (56 bytes).
    Removing drv_iic.o(i.IIC_Stop), (50 bytes).
    Removing drv_iic.o(i.IIC_WaitAck), (112 bytes).
    Removing drv_iic.o(i.IIC_WriteByte), (76 bytes).
    Removing cpuport.o(i.rt_hw_cpu_shutdown), (2 bytes).
    Removing cpuport.o(i.rt_hw_exception_install), (12 bytes).
    Removing clock.o(i.rt_system_tick_init), (2 bytes).
    Removing clock.o(i.rt_tick_from_millisecond), (30 bytes).
    Removing clock.o(i.rt_tick_set), (28 bytes).
    Removing idle.o(i.rt_thread_idle_gethandler), (8 bytes).
    Removing ipc.o(i.rt_ipc_list_resume_all), (50 bytes).
    Removing ipc.o(i.rt_mb_control), (66 bytes).
    Removing ipc.o(i.rt_mb_create), (82 bytes).
    Removing ipc.o(i.rt_mb_delete), (36 bytes).
    Removing ipc.o(i.rt_mb_detach), (30 bytes).
    Removing ipc.o(i.rt_mb_init), (62 bytes).
    Removing ipc.o(i.rt_mb_recv), (244 bytes).
    Removing ipc.o(i.rt_mb_send), (18 bytes).
    Removing ipc.o(i.rt_mb_send_wait), (246 bytes).
    Removing ipc.o(i.rt_mq_control), (82 bytes).
    Removing ipc.o(i.rt_mq_create), (128 bytes).
    Removing ipc.o(i.rt_mq_delete), (28 bytes).
    Removing ipc.o(i.rt_mq_detach), (22 bytes).
    Removing ipc.o(i.rt_mq_init), (104 bytes).
    Removing ipc.o(i.rt_mq_recv), (252 bytes).
    Removing ipc.o(i.rt_mq_send), (140 bytes).
    Removing ipc.o(i.rt_mq_urgent), (132 bytes).
    Removing ipc.o(i.rt_mutex_control), (8 bytes).
    Removing ipc.o(i.rt_mutex_create), (50 bytes).
    Removing ipc.o(i.rt_mutex_delete), (22 bytes).
    Removing ipc.o(i.rt_mutex_detach), (22 bytes).
    Removing ipc.o(i.rt_mutex_init), (44 bytes).
    Removing ipc.o(i.rt_mutex_release), (150 bytes).
    Removing ipc.o(i.rt_mutex_take), (192 bytes).
    Removing ipc.o(i.rt_sem_control), (54 bytes).
    Removing ipc.o(i.rt_sem_create), (42 bytes).
    Removing ipc.o(i.rt_sem_delete), (22 bytes).
    Removing ipc.o(i.rt_sem_detach), (22 bytes).
    Removing ipc.o(i.rt_sem_trytake), (14 bytes).
    Removing irq.o(i.rt_interrupt_get_nest), (12 bytes).
    Removing kservice.o(i._rt_errno), (36 bytes).
    Removing kservice.o(i.print_number), (396 bytes).
    Removing kservice.o(i.rt_free_align), (16 bytes).
    Removing kservice.o(i.rt_get_errno), (36 bytes).
    Removing kservice.o(i.rt_malloc_align), (66 bytes).
    Removing kservice.o(i.rt_memcmp), (38 bytes).
    Removing kservice.o(i.rt_memcpy), (124 bytes).
    Removing kservice.o(i.rt_memmove), (66 bytes).
    Removing kservice.o(i.rt_set_errno), (40 bytes).
    Removing kservice.o(i.rt_snprintf), (38 bytes).
    Removing kservice.o(i.rt_sprintf), (34 bytes).
    Removing kservice.o(i.rt_strcasecmp), (48 bytes).
    Removing kservice.o(i.rt_strcmp), (28 bytes).
    Removing kservice.o(i.rt_strdup), (40 bytes).
    Removing kservice.o(i.rt_strlen), (18 bytes).
    Removing kservice.o(i.rt_strncmp), (40 bytes).
    Removing kservice.o(i.rt_strnlen), (24 bytes).
    Removing kservice.o(i.rt_strstr), (58 bytes).
    Removing kservice.o(i.rt_vsnprintf), (808 bytes).
    Removing kservice.o(i.rt_vsprintf), (22 bytes).
    Removing kservice.o(i.skip_atoi), (38 bytes).
    Removing kservice.o(.data), (4 bytes).
    Removing mem.o(i.rt_calloc), (34 bytes).
    Removing mem.o(i.rt_memory_info), (40 bytes).
    Removing mem.o(i.rt_realloc), (296 bytes).
    Removing object.o(i.rt_object_find), (86 bytes).
    Removing object.o(i.rt_system_object_init), (2 bytes).
    Removing scheduler.o(i.rt_critical_level), (12 bytes).
    Removing thread.o(i.rt_thread_control), (118 bytes).
    Removing thread.o(i.rt_thread_delete), (64 bytes).
    Removing thread.o(i.rt_thread_detach), (76 bytes).
    Removing thread.o(i.rt_thread_find), (82 bytes).
    Removing timer.o(i.rt_timer_create), (54 bytes).
    Removing timer.o(i.rt_timer_delete), (32 bytes).
    Removing timer.o(i.rt_timer_list_next_timeout), (28 bytes).
    Removing timer.o(i.rt_timer_next_timeout_tick), (16 bytes).
    Removing ringbuffer.o(i.rt_ringbuffer_create), (50 bytes).
    Removing ringbuffer.o(i.rt_ringbuffer_data_len), (76 bytes).
    Removing ringbuffer.o(i.rt_ringbuffer_destroy), (18 bytes).
    Removing ringbuffer.o(i.rt_ringbuffer_get), (164 bytes).
    Removing ringbuffer.o(i.rt_ringbuffer_getchar), (88 bytes).
    Removing ringbuffer.o(i.rt_ringbuffer_init), (44 bytes).
    Removing ringbuffer.o(i.rt_ringbuffer_put), (168 bytes).
    Removing ringbuffer.o(i.rt_ringbuffer_put_force), (220 bytes).
    Removing ringbuffer.o(i.rt_ringbuffer_putchar), (90 bytes).
    Removing ringbuffer.o(i.rt_ringbuffer_putchar_force), (126 bytes).
    Removing ringbuffer.o(i.rt_ringbuffer_reset), (36 bytes).
    Removing ringbuffer.o(i.rt_ringbuffer_status), (42 bytes).
    Removing mqttconnectclient.o(i.MQTTDeserialize_connack), (118 bytes).
    Removing mqttconnectclient.o(i.MQTTSerialize_connect), (360 bytes).
    Removing mqttconnectclient.o(i.MQTTSerialize_connectLength), (118 bytes).
    Removing mqttconnectclient.o(i.MQTTSerialize_disconnect), (18 bytes).
    Removing mqttconnectclient.o(i.MQTTSerialize_pingreq), (18 bytes).
    Removing mqttconnectclient.o(i.MQTTSerialize_zero), (76 bytes).
    Removing mqttconnectserver.o(i.MQTTDeserialize_connect), (298 bytes).
    Removing mqttconnectserver.o(i.MQTTPacket_checkVersion), (92 bytes).
    Removing mqttconnectserver.o(i.MQTTSerialize_connack), (118 bytes).
    Removing mqttdeserializepublish.o(i.MQTTDeserialize_ack), (108 bytes).
    Removing mqttdeserializepublish.o(i.MQTTDeserialize_publish), (168 bytes).
    Removing mqttformat.o(i.MQTTPacket_getName), (16 bytes).
    Removing mqttformat.o(i.MQTTStringFormat_ack), (100 bytes).
    Removing mqttformat.o(i.MQTTStringFormat_connack), (72 bytes).
    Removing mqttformat.o(i.MQTTStringFormat_connect), (192 bytes).
    Removing mqttformat.o(i.MQTTStringFormat_publish), (84 bytes).
    Removing mqttformat.o(i.MQTTStringFormat_suback), (84 bytes).
    Removing mqttformat.o(i.MQTTStringFormat_subscribe), (120 bytes).
    Removing mqttformat.o(i.MQTTStringFormat_unsubscribe), (104 bytes).
    Removing mqttformat.o(.conststring), (383 bytes).
    Removing mqttformat.o(.data), (60 bytes).
    Removing mqttpacket.o(i.MQTTPacket_decode), (88 bytes).
    Removing mqttpacket.o(i.MQTTPacket_decodeBuf), (28 bytes).
    Removing mqttpacket.o(i.MQTTPacket_decodenb), (104 bytes).
    Removing mqttpacket.o(i.MQTTPacket_encode), (54 bytes).
    Removing mqttpacket.o(i.MQTTPacket_equals), (66 bytes).
    Removing mqttpacket.o(i.MQTTPacket_len), (40 bytes).
    Removing mqttpacket.o(i.MQTTPacket_read), (102 bytes).
    Removing mqttpacket.o(i.MQTTPacket_readnb), (204 bytes).
    Removing mqttpacket.o(i.MQTTstrlen), (24 bytes).
    Removing mqttpacket.o(i.bufchar), (40 bytes).
    Removing mqttpacket.o(i.getLenStringLen), (18 bytes).
    Removing mqttpacket.o(i.readChar), (14 bytes).
    Removing mqttpacket.o(i.readInt), (26 bytes).
    Removing mqttpacket.o(i.readMQTTLenString), (58 bytes).
    Removing mqttpacket.o(i.writeCString), (40 bytes).
    Removing mqttpacket.o(i.writeChar), (12 bytes).
    Removing mqttpacket.o(i.writeInt), (48 bytes).
    Removing mqttpacket.o(i.writeMQTTString), (62 bytes).
    Removing mqttpacket.o(.data), (4 bytes).
    Removing mqttserializepublish.o(i.MQTTSerialize_ack), (114 bytes).
    Removing mqttserializepublish.o(i.MQTTSerialize_puback), (24 bytes).
    Removing mqttserializepublish.o(i.MQTTSerialize_pubcomp), (24 bytes).
    Removing mqttserializepublish.o(i.MQTTSerialize_publish), (176 bytes).
    Removing mqttserializepublish.o(i.MQTTSerialize_publishLength), (34 bytes).
    Removing mqttserializepublish.o(i.MQTTSerialize_pubrel), (26 bytes).
    Removing mqttsubscribeclient.o(i.MQTTDeserialize_suback), (146 bytes).
    Removing mqttsubscribeclient.o(i.MQTTSerialize_subscribe), (176 bytes).
    Removing mqttsubscribeclient.o(i.MQTTSerialize_subscribeLength), (46 bytes).
    Removing mqttsubscribeserver.o(i.MQTTDeserialize_subscribe), (166 bytes).
    Removing mqttsubscribeserver.o(i.MQTTSerialize_suback), (120 bytes).
    Removing mqttunsubscribeclient.o(i.MQTTDeserialize_unsuback), (46 bytes).
    Removing mqttunsubscribeclient.o(i.MQTTSerialize_unsubscribe), (166 bytes).
    Removing mqttunsubscribeclient.o(i.MQTTSerialize_unsubscribeLength), (46 bytes).
    Removing mqttunsubscribeserver.o(i.MQTTDeserialize_unsubscribe), (144 bytes).
    Removing mqttunsubscribeserver.o(i.MQTTSerialize_unsuback), (86 bytes).
    Removing drv_sx1278.o(i.drv_sx1278_set_hop_period), (18 bytes).
    Removing drv_sx1278.o(i.drv_sx1278_set_preamble_length), (28 bytes).
    Removing aes.o(i.mbedtls_aes_crypt_cfb128), (134 bytes).
    Removing aes.o(i.mbedtls_aes_crypt_cfb8), (100 bytes).
    Removing aes.o(i.mbedtls_aes_crypt_ctr), (106 bytes).
    Removing aes.o(i.mbedtls_aes_decrypt), (20 bytes).
    Removing aes.o(i.mbedtls_aes_encrypt), (20 bytes).
    Removing aes.o(i.mbedtls_aes_self_test), (1216 bytes).
    Removing aes.o(.constdata), (956 bytes).
    Removing nwk_node.o(i.nwk_node_read), (44 bytes).
    Removing nwk_node.o(i.nwk_node_req_join), (44 bytes).
    Removing nwk_node.o(i.nwk_node_save), (28 bytes).
    Removing nwk_node.o(i.nwk_node_send2gateway), (52 bytes).
    Removing nwk_node.o(i.nwk_node_send2node), (6 bytes).
    Removing nwk_node.o(i.nwk_set_node_sn), (20 bytes).
    Removing nwk_node.o(i.nwk_set_parent), (20 bytes).
    Removing nwk_node.o(i.nwk_set_root_key), (20 bytes).
    Removing nwk_node.o(i.nwk_set_wake_period), (12 bytes).
    Removing nwk_bsp.o(i.nwk_delay_us), (12 bytes).
    Removing nwk_bsp.o(i.nwk_eeprom_read), (18 bytes).
    Removing nwk_bsp.o(i.nwk_eeprom_save), (18 bytes).
    Removing nwk_slave.o(i.nwk_slave_broad_process), (332 bytes).
    Removing nwk_slave.o(i.nwk_slave_cad_check), (28 bytes).
    Removing nwk_slave.o(i.nwk_slave_cad_init), (28 bytes).
    Removing nwk_slave.o(i.nwk_slave_fun_send_register), (12 bytes).
    Removing nwk_slave.o(i.nwk_slave_main), (28 bytes).
    Removing nwk_slave.o(i.nwk_slave_read), (44 bytes).
    Removing nwk_slave.o(i.nwk_slave_recv_check), (52 bytes).
    Removing nwk_slave.o(i.nwk_slave_recv_init), (28 bytes).
    Removing nwk_slave.o(i.nwk_slave_rx_process), (612 bytes).
    Removing nwk_slave.o(i.nwk_slave_save), (28 bytes).
    Removing nwk_slave.o(i.nwk_slave_send_check), (28 bytes).
    Removing nwk_slave.o(i.nwk_slave_send_heart), (14 bytes).
    Removing nwk_slave.o(i.nwk_slave_send_rx), (152 bytes).
    Removing nwk_slave.o(i.nwk_slave_send_sniff), (144 bytes).
    Removing nwk_slave.o(i.nwk_slave_set_addr), (20 bytes).
    Removing nwk_slave.o(i.nwk_slave_tx_process), (648 bytes).
    Removing nwk_slave.o(i.nwk_slave_uart_send_level), (168 bytes).
    Removing nwk_slave.o(i.nwk_slave_work_state_check), (152 bytes).
    Removing nwk_master.o(i.nwk_master_add_token), (92 bytes).
    Removing nwk_master.o(i.nwk_master_del_token), (80 bytes).
    Removing nwk_master.o(i.nwk_master_find_slave), (44 bytes).
    Removing nwk_master.o(i.nwk_master_find_token), (32 bytes).
    Removing nwk_master.o(i.nwk_master_fun_send_register), (28 bytes).
    Removing nwk_master.o(i.nwk_master_lora_parse), (1240 bytes).
    Removing nwk_master.o(i.nwk_master_main), (12 bytes).
    Removing nwk_master.o(i.nwk_master_make_lora_buff), (372 bytes).
    Removing nwk_master.o(i.nwk_master_set_root_key), (20 bytes).
    Removing nwk_master.o(i.nwk_master_uart_parse), (200 bytes).
    Removing nwk_master.o(i.nwk_master_uart_send_level), (168 bytes).
    Removing nwk_master.o(.bss), (388 bytes).
    Removing misc.o(i.NVIC_PriorityGroupConfig), (20 bytes).
    Removing misc.o(i.NVIC_SetVectorTable), (20 bytes).
    Removing misc.o(i.NVIC_SystemLPConfig), (32 bytes).
    Removing misc.o(i.SysTick_CLKSourceConfig), (40 bytes).
    Removing stm32f10x_bkp.o(i.BKP_ClearFlag), (20 bytes).
    Removing stm32f10x_bkp.o(i.BKP_ClearITPendingBit), (20 bytes).
    Removing stm32f10x_bkp.o(i.BKP_GetFlagStatus), (12 bytes).
    Removing stm32f10x_bkp.o(i.BKP_GetITStatus), (12 bytes).
    Removing stm32f10x_bkp.o(i.BKP_ITConfig), (12 bytes).
    Removing stm32f10x_bkp.o(i.BKP_SetRTCCalibrationValue), (28 bytes).
    Removing stm32f10x_bkp.o(i.BKP_TamperPinLevelConfig), (12 bytes).
    Removing stm32f10x_flash.o(i.FLASH_ClearFlag), (12 bytes).
    Removing stm32f10x_flash.o(i.FLASH_EnableWriteProtection), (196 bytes).
    Removing stm32f10x_flash.o(i.FLASH_EraseAllBank1Pages), (72 bytes).
    Removing stm32f10x_flash.o(i.FLASH_EraseAllPages), (72 bytes).
    Removing stm32f10x_flash.o(i.FLASH_EraseOptionBytes), (168 bytes).
    Removing stm32f10x_flash.o(i.FLASH_ErasePage), (76 bytes).
    Removing stm32f10x_flash.o(i.FLASH_GetBank1Status), (52 bytes).
    Removing stm32f10x_flash.o(i.FLASH_GetFlagStatus), (48 bytes).
    Removing stm32f10x_flash.o(i.FLASH_GetPrefetchBufferStatus), (24 bytes).
    Removing stm32f10x_flash.o(i.FLASH_GetReadOutProtectionStatus), (24 bytes).
    Removing stm32f10x_flash.o(i.FLASH_GetStatus), (52 bytes).
    Removing stm32f10x_flash.o(i.FLASH_GetUserOptionByte), (12 bytes).
    Removing stm32f10x_flash.o(i.FLASH_GetWriteProtectionOptionByte), (12 bytes).
    Removing stm32f10x_flash.o(i.FLASH_HalfCycleAccessCmd), (28 bytes).
    Removing stm32f10x_flash.o(i.FLASH_ITConfig), (32 bytes).
    Removing stm32f10x_flash.o(i.FLASH_Lock), (20 bytes).
    Removing stm32f10x_flash.o(i.FLASH_LockBank1), (20 bytes).
    Removing stm32f10x_flash.o(i.FLASH_ProgramHalfWord), (64 bytes).
    Removing stm32f10x_flash.o(i.FLASH_ProgramOptionByteData), (84 bytes).
    Removing stm32f10x_flash.o(i.FLASH_ProgramWord), (108 bytes).
    Removing stm32f10x_flash.o(i.FLASH_ReadOutProtection), (172 bytes).
    Removing stm32f10x_flash.o(i.FLASH_Unlock), (24 bytes).
    Removing stm32f10x_flash.o(i.FLASH_UnlockBank1), (24 bytes).
    Removing stm32f10x_flash.o(i.FLASH_UserOptionByteConfig), (104 bytes).
    Removing stm32f10x_flash.o(i.FLASH_WaitForLastBank1Operation), (38 bytes).
    Removing stm32f10x_flash.o(i.FLASH_WaitForLastOperation), (38 bytes).
    Removing stm32f10x_gpio.o(i.GPIO_AFIODeInit), (20 bytes).
    Removing stm32f10x_gpio.o(i.GPIO_DeInit), (200 bytes).
    Removing stm32f10x_gpio.o(i.GPIO_ETH_MediaInterfaceConfig), (12 bytes).
    Removing stm32f10x_gpio.o(i.GPIO_EXTILineConfig), (64 bytes).
    Removing stm32f10x_gpio.o(i.GPIO_EventOutputCmd), (12 bytes).
    Removing stm32f10x_gpio.o(i.GPIO_EventOutputConfig), (32 bytes).
    Removing stm32f10x_gpio.o(i.GPIO_PinLockConfig), (18 bytes).
    Removing stm32f10x_gpio.o(i.GPIO_ReadInputData), (8 bytes).
    Removing stm32f10x_gpio.o(i.GPIO_ReadInputDataBit), (18 bytes).
    Removing stm32f10x_gpio.o(i.GPIO_ReadOutputData), (8 bytes).
    Removing stm32f10x_gpio.o(i.GPIO_ReadOutputDataBit), (18 bytes).
    Removing stm32f10x_gpio.o(i.GPIO_StructInit), (16 bytes).
    Removing stm32f10x_gpio.o(i.GPIO_Write), (4 bytes).
    Removing stm32f10x_gpio.o(i.GPIO_WriteBit), (10 bytes).
    Removing stm32f10x_pwr.o(i.PWR_ClearFlag), (20 bytes).
    Removing stm32f10x_pwr.o(i.PWR_DeInit), (22 bytes).
    Removing stm32f10x_pwr.o(i.PWR_EnterSTANDBYMode), (52 bytes).
    Removing stm32f10x_pwr.o(i.PWR_EnterSTOPMode), (64 bytes).
    Removing stm32f10x_pwr.o(i.PWR_GetFlagStatus), (24 bytes).
    Removing stm32f10x_pwr.o(i.PWR_PVDCmd), (12 bytes).
    Removing stm32f10x_pwr.o(i.PWR_PVDLevelConfig), (24 bytes).
    Removing stm32f10x_pwr.o(i.PWR_WakeUpPinCmd), (12 bytes).
    Removing stm32f10x_rcc.o(i.RCC_ADCCLKConfig), (24 bytes).
    Removing stm32f10x_rcc.o(i.RCC_AHBPeriphClockCmd), (32 bytes).
    Removing stm32f10x_rcc.o(i.RCC_APB1PeriphResetCmd), (32 bytes).
    Removing stm32f10x_rcc.o(i.RCC_APB2PeriphResetCmd), (32 bytes).
    Removing stm32f10x_rcc.o(i.RCC_AdjustHSICalibrationValue), (24 bytes).
    Removing stm32f10x_rcc.o(i.RCC_ClearFlag), (20 bytes).
    Removing stm32f10x_rcc.o(i.RCC_ClearITPendingBit), (12 bytes).
    Removing stm32f10x_rcc.o(i.RCC_ClockSecuritySystemCmd), (12 bytes).
    Removing stm32f10x_rcc.o(i.RCC_GetITStatus), (24 bytes).
    Removing stm32f10x_rcc.o(i.RCC_HSEConfig), (76 bytes).
    Removing stm32f10x_rcc.o(i.RCC_ITConfig), (32 bytes).
    Removing stm32f10x_rcc.o(i.RCC_MCOConfig), (12 bytes).
    Removing stm32f10x_rcc.o(i.RCC_USBCLKConfig), (12 bytes).
    Removing stm32f10x_rcc.o(i.RCC_WaitForHSEStartUp), (56 bytes).
    Removing stm32f10x_rtc.o(i.RTC_ClearFlag), (16 bytes).
    Removing stm32f10x_rtc.o(i.RTC_GetCounter), (20 bytes).
    Removing stm32f10x_rtc.o(i.RTC_GetDivider), (24 bytes).
    Removing stm32f10x_rtc.o(i.RTC_GetFlagStatus), (24 bytes).
    Removing stm32f10x_rtc.o(i.RTC_ITConfig), (32 bytes).
    Removing stm32f10x_rtc.o(i.RTC_SetAlarm), (28 bytes).
    Removing stm32f10x_rtc.o(i.RTC_SetPrescaler), (32 bytes).
    Removing stm32f10x_spi.o(i.I2S_Cmd), (24 bytes).
    Removing stm32f10x_spi.o(i.I2S_Init), (232 bytes).
    Removing stm32f10x_spi.o(i.I2S_StructInit), (20 bytes).
    Removing stm32f10x_spi.o(i.SPI_BiDirectionalLineConfig), (28 bytes).
    Removing stm32f10x_spi.o(i.SPI_CalculateCRC), (24 bytes).
    Removing stm32f10x_spi.o(i.SPI_DataSizeConfig), (18 bytes).
    Removing stm32f10x_spi.o(i.SPI_GetCRC), (16 bytes).
    Removing stm32f10x_spi.o(i.SPI_GetCRCPolynomial), (6 bytes).
    Removing stm32f10x_spi.o(i.SPI_I2S_ClearFlag), (6 bytes).
    Removing stm32f10x_spi.o(i.SPI_I2S_ClearITPendingBit), (20 bytes).
    Removing stm32f10x_spi.o(i.SPI_I2S_DMACmd), (18 bytes).
    Removing stm32f10x_spi.o(i.SPI_I2S_DeInit), (88 bytes).
    Removing stm32f10x_spi.o(i.SPI_I2S_GetITStatus), (52 bytes).
    Removing stm32f10x_spi.o(i.SPI_I2S_ITConfig), (32 bytes).
    Removing stm32f10x_spi.o(i.SPI_NSSInternalSoftwareConfig), (30 bytes).
    Removing stm32f10x_spi.o(i.SPI_SSOutputCmd), (24 bytes).
    Removing stm32f10x_spi.o(i.SPI_StructInit), (24 bytes).
    Removing stm32f10x_spi.o(i.SPI_TransmitCRC), (10 bytes).
    Removing stm32f10x_usart.o(i.USART_ClockInit), (34 bytes).
    Removing stm32f10x_usart.o(i.USART_ClockStructInit), (12 bytes).
    Removing stm32f10x_usart.o(i.USART_DMACmd), (18 bytes).
    Removing stm32f10x_usart.o(i.USART_DeInit), (156 bytes).
    Removing stm32f10x_usart.o(i.USART_HalfDuplexCmd), (24 bytes).
    Removing stm32f10x_usart.o(i.USART_IrDACmd), (24 bytes).
    Removing stm32f10x_usart.o(i.USART_IrDAConfig), (18 bytes).
    Removing stm32f10x_usart.o(i.USART_LINBreakDetectLengthConfig), (18 bytes).
    Removing stm32f10x_usart.o(i.USART_LINCmd), (24 bytes).
    Removing stm32f10x_usart.o(i.USART_OneBitMethodCmd), (24 bytes).
    Removing stm32f10x_usart.o(i.USART_OverSampling8Cmd), (22 bytes).
    Removing stm32f10x_usart.o(i.USART_ReceiverWakeUpCmd), (24 bytes).
    Removing stm32f10x_usart.o(i.USART_SendBreak), (10 bytes).
    Removing stm32f10x_usart.o(i.USART_SetAddress), (18 bytes).
    Removing stm32f10x_usart.o(i.USART_SetGuardTime), (16 bytes).
    Removing stm32f10x_usart.o(i.USART_SetPrescaler), (16 bytes).
    Removing stm32f10x_usart.o(i.USART_SmartCardCmd), (24 bytes).
    Removing stm32f10x_usart.o(i.USART_SmartCardNACKCmd), (24 bytes).
    Removing stm32f10x_usart.o(i.USART_StructInit), (24 bytes).
    Removing stm32f10x_usart.o(i.USART_WakeUpConfig), (18 bytes).
    Removing stm32f10x_wwdg.o(i.WWDG_ClearFlag), (12 bytes).
    Removing stm32f10x_wwdg.o(i.WWDG_DeInit), (22 bytes).
    Removing stm32f10x_wwdg.o(i.WWDG_EnableIT), (12 bytes).
    Removing stm32f10x_wwdg.o(i.WWDG_GetFlagStatus), (12 bytes).
    Removing stm32f10x_wwdg.o(i.WWDG_SetCounter), (16 bytes).
    Removing dfixul.o(.text), (48 bytes).
    Removing cdrcmple.o(.text), (48 bytes).

349 unused section(s) (total 27525 bytes) removed from the image.

==============================================================================

Image Symbol Table

    Local Symbols

    Symbol Name                              Value     Ov Type        Size  Object(Section)

    ../clib/microlib/division.c              0x00000000   Number         0  uldiv.o ABSOLUTE
    ../clib/microlib/division.c              0x00000000   Number         0  uidiv.o ABSOLUTE
    ../clib/microlib/init/entry.s            0x00000000   Number         0  entry5.o ABSOLUTE
    ../clib/microlib/init/entry.s            0x00000000   Number         0  entry.o ABSOLUTE
    ../clib/microlib/init/entry.s            0x00000000   Number         0  entry9b.o ABSOLUTE
    ../clib/microlib/init/entry.s            0x00000000   Number         0  entry11a.o ABSOLUTE
    ../clib/microlib/init/entry.s            0x00000000   Number         0  entry11b.o ABSOLUTE
    ../clib/microlib/init/entry.s            0x00000000   Number         0  entry9a.o ABSOLUTE
    ../clib/microlib/init/entry.s            0x00000000   Number         0  entry2.o ABSOLUTE
    ../clib/microlib/init/entry.s            0x00000000   Number         0  entry8b.o ABSOLUTE
    ../clib/microlib/init/entry.s            0x00000000   Number         0  entry8a.o ABSOLUTE
    ../clib/microlib/init/entry.s            0x00000000   Number         0  entry10a.o ABSOLUTE
    ../clib/microlib/init/entry.s            0x00000000   Number         0  entry7b.o ABSOLUTE
    ../clib/microlib/init/entry.s            0x00000000   Number         0  entry7a.o ABSOLUTE
    ../clib/microlib/init/entry.s            0x00000000   Number         0  entry10b.o ABSOLUTE
    ../clib/microlib/longlong.c              0x00000000   Number         0  llushr.o ABSOLUTE
    ../clib/microlib/longlong.c              0x00000000   Number         0  llsshr.o ABSOLUTE
    ../clib/microlib/longlong.c              0x00000000   Number         0  llshl.o ABSOLUTE
    ../clib/microlib/malloc/malloc.c         0x00000000   Number         0  malloc.o ABSOLUTE
    ../clib/microlib/malloc/malloc.c         0x00000000   Number         0  mallocr.o ABSOLUTE
    ../clib/microlib/malloc/malloc.c         0x00000000   Number         0  mallocra.o ABSOLUTE
    ../clib/microlib/malloc/malloc.c         0x00000000   Number         0  malloca.o ABSOLUTE
    ../clib/microlib/malloc/mvars.c          0x00000000   Number         0  mvars.o ABSOLUTE
    ../clib/microlib/printf/printf.c         0x00000000   Number         0  printf1.o ABSOLUTE
    ../clib/microlib/printf/printf.c         0x00000000   Number         0  printf0.o ABSOLUTE
    ../clib/microlib/printf/printf.c         0x00000000   Number         0  printfb.o ABSOLUTE
    ../clib/microlib/printf/printf.c         0x00000000   Number         0  printfa.o ABSOLUTE
    ../clib/microlib/printf/printf.c         0x00000000   Number         0  printf8.o ABSOLUTE
    ../clib/microlib/printf/printf.c         0x00000000   Number         0  printf7.o ABSOLUTE
    ../clib/microlib/printf/printf.c         0x00000000   Number         0  printf6.o ABSOLUTE
    ../clib/microlib/printf/printf.c         0x00000000   Number         0  printf5.o ABSOLUTE
    ../clib/microlib/printf/printf.c         0x00000000   Number         0  printf4.o ABSOLUTE
    ../clib/microlib/printf/printf.c         0x00000000   Number         0  printf3.o ABSOLUTE
    ../clib/microlib/printf/printf.c         0x00000000   Number         0  printf2.o ABSOLUTE
    ../clib/microlib/printf/stubs.s          0x00000000   Number         0  stubs.o ABSOLUTE
    ../clib/microlib/stdio/streams.c         0x00000000   Number         0  stdout.o ABSOLUTE
    ../clib/microlib/stdlib/rand.c           0x00000000   Number         0  rand.o ABSOLUTE
    ../clib/microlib/string/memcmp.c         0x00000000   Number         0  memcmp.o ABSOLUTE
    ../clib/microlib/string/memcpy.c         0x00000000   Number         0  memcpyb.o ABSOLUTE
    ../clib/microlib/string/memcpy.c         0x00000000   Number         0  memcpya.o ABSOLUTE
    ../clib/microlib/string/memset.c         0x00000000   Number         0  memseta.o ABSOLUTE
    ../clib/microlib/string/strcpy.c         0x00000000   Number         0  strcpy.o ABSOLUTE
    ../clib/microlib/string/strlen.c         0x00000000   Number         0  strlen.o ABSOLUTE
    ../clib/microlib/string/strncmp.c        0x00000000   Number         0  strncmp.o ABSOLUTE
    ../clib/microlib/string/strstr.c         0x00000000   Number         0  strstr.o ABSOLUTE
    ../clib/microlib/stubs.s                 0x00000000   Number         0  iusefp.o ABSOLUTE
    ../fplib/microlib/fpadd.c                0x00000000   Number         0  dadd.o ABSOLUTE
    ../fplib/microlib/fpdiv.c                0x00000000   Number         0  fdiv.o ABSOLUTE
    ../fplib/microlib/fpdiv.c                0x00000000   Number         0  ddiv.o ABSOLUTE
    ../fplib/microlib/fpepilogue.c           0x00000000   Number         0  depilogue.o ABSOLUTE
    ../fplib/microlib/fpepilogue.c           0x00000000   Number         0  fepilogue.o ABSOLUTE
    ../fplib/microlib/fpfix.c                0x00000000   Number         0  dfixui.o ABSOLUTE
    ../fplib/microlib/fpfix.c                0x00000000   Number         0  dfixul.o ABSOLUTE
    ../fplib/microlib/fpfix.c                0x00000000   Number         0  ffixui.o ABSOLUTE
    ../fplib/microlib/fpflt.c                0x00000000   Number         0  dfltui.o ABSOLUTE
    ../fplib/microlib/fpflt.c                0x00000000   Number         0  dflti.o ABSOLUTE
    ../fplib/microlib/fpflt.c                0x00000000   Number         0  ffltui.o ABSOLUTE
    ../fplib/microlib/fpmul.c                0x00000000   Number         0  dmul.o ABSOLUTE
    ../fplib/microlib/fpmul.c                0x00000000   Number         0  fmul.o ABSOLUTE
    ..\..\Drivers\LoRaSun\nwk_bsp.c          0x00000000   Number         0  nwk_bsp.o ABSOLUTE
    ..\..\Drivers\LoRaSun\nwk_master.c       0x00000000   Number         0  nwk_master.o ABSOLUTE
    ..\..\Drivers\LoRaSun\nwk_node.c         0x00000000   Number         0  nwk_node.o ABSOLUTE
    ..\..\Drivers\LoRaSun\nwk_slave.c        0x00000000   Number         0  nwk_slave.o ABSOLUTE
    ..\..\Drivers\MQTT\MQTTConnectClient.c   0x00000000   Number         0  mqttconnectclient.o ABSOLUTE
    ..\..\Drivers\MQTT\MQTTConnectServer.c   0x00000000   Number         0  mqttconnectserver.o ABSOLUTE
    ..\..\Drivers\MQTT\MQTTDeserializePublish.c 0x00000000   Number         0  mqttdeserializepublish.o ABSOLUTE
    ..\..\Drivers\MQTT\MQTTFormat.c          0x00000000   Number         0  mqttformat.o ABSOLUTE
    ..\..\Drivers\MQTT\MQTTPacket.c          0x00000000   Number         0  mqttpacket.o ABSOLUTE
    ..\..\Drivers\MQTT\MQTTSerializePublish.c 0x00000000   Number         0  mqttserializepublish.o ABSOLUTE
    ..\..\Drivers\MQTT\MQTTSubscribeClient.c 0x00000000   Number         0  mqttsubscribeclient.o ABSOLUTE
    ..\..\Drivers\MQTT\MQTTSubscribeServer.c 0x00000000   Number         0  mqttsubscribeserver.o ABSOLUTE
    ..\..\Drivers\MQTT\MQTTUnsubscribeClient.c 0x00000000   Number         0  mqttunsubscribeclient.o ABSOLUTE
    ..\..\Drivers\MQTT\MQTTUnsubscribeServer.c 0x00000000   Number         0  mqttunsubscribeserver.o ABSOLUTE
    ..\..\Drivers\board.c                    0x00000000   Number         0  board.o ABSOLUTE
    ..\..\Drivers\drv_common.c               0x00000000   Number         0  drv_common.o ABSOLUTE
    ..\..\Drivers\drv_encrypt.c              0x00000000   Number         0  drv_encrypt.o ABSOLUTE
    ..\..\Drivers\drv_iic.c                  0x00000000   Number         0  drv_iic.o ABSOLUTE
    ..\..\Drivers\drv_uart.c                 0x00000000   Number         0  drv_uart.o ABSOLUTE
    ..\..\Drivers\encrypt\mbedtls\aes.c      0x00000000   Number         0  aes.o ABSOLUTE
    ..\..\Drivers\sx1278\drv_sx1278.c        0x00000000   Number         0  drv_sx1278.o ABSOLUTE
    ..\..\Drivers\sx1278\hal_sx1278.c        0x00000000   Number         0  hal_sx1278.o ABSOLUTE
    ..\..\Libraries\CMSIS\CoreSupport\core_cm3.c 0x00000000   Number         0  core_cm3.o ABSOLUTE
    ..\..\Libraries\StdPeriph_Driver\src\misc.c 0x00000000   Number         0  misc.o ABSOLUTE
    ..\..\Libraries\StdPeriph_Driver\src\stm32f10x_bkp.c 0x00000000   Number         0  stm32f10x_bkp.o ABSOLUTE
    ..\..\Libraries\StdPeriph_Driver\src\stm32f10x_flash.c 0x00000000   Number         0  stm32f10x_flash.o ABSOLUTE
    ..\..\Libraries\StdPeriph_Driver\src\stm32f10x_gpio.c 0x00000000   Number         0  stm32f10x_gpio.o ABSOLUTE
    ..\..\Libraries\StdPeriph_Driver\src\stm32f10x_pwr.c 0x00000000   Number         0  stm32f10x_pwr.o ABSOLUTE
    ..\..\Libraries\StdPeriph_Driver\src\stm32f10x_rcc.c 0x00000000   Number         0  stm32f10x_rcc.o ABSOLUTE
    ..\..\Libraries\StdPeriph_Driver\src\stm32f10x_rtc.c 0x00000000   Number         0  stm32f10x_rtc.o ABSOLUTE
    ..\..\Libraries\StdPeriph_Driver\src\stm32f10x_spi.c 0x00000000   Number         0  stm32f10x_spi.o ABSOLUTE
    ..\..\Libraries\StdPeriph_Driver\src\stm32f10x_usart.c 0x00000000   Number         0  stm32f10x_usart.o ABSOLUTE
    ..\..\Libraries\StdPeriph_Driver\src\stm32f10x_wwdg.c 0x00000000   Number         0  stm32f10x_wwdg.o ABSOLUTE
    ..\..\RT-Thread\components\drivers\ringbuffer.c 0x00000000   Number         0  ringbuffer.o ABSOLUTE
    ..\..\RT-Thread\libcpu\arm\cortex-m3\context_rvds.S 0x00000000   Number         0  context_rvds.o ABSOLUTE
    ..\..\RT-Thread\libcpu\arm\cortex-m3\cpuport.c 0x00000000   Number         0  cpuport.o ABSOLUTE
    ..\..\RT-Thread\src\clock.c              0x00000000   Number         0  clock.o ABSOLUTE
    ..\..\RT-Thread\src\components.c         0x00000000   Number         0  components.o ABSOLUTE
    ..\..\RT-Thread\src\device.c             0x00000000   Number         0  device.o ABSOLUTE
    ..\..\RT-Thread\src\idle.c               0x00000000   Number         0  idle.o ABSOLUTE
    ..\..\RT-Thread\src\ipc.c                0x00000000   Number         0  ipc.o ABSOLUTE
    ..\..\RT-Thread\src\irq.c                0x00000000   Number         0  irq.o ABSOLUTE
    ..\..\RT-Thread\src\kservice.c           0x00000000   Number         0  kservice.o ABSOLUTE
    ..\..\RT-Thread\src\mem.c                0x00000000   Number         0  mem.o ABSOLUTE
    ..\..\RT-Thread\src\memheap.c            0x00000000   Number         0  memheap.o ABSOLUTE
    ..\..\RT-Thread\src\mempool.c            0x00000000   Number         0  mempool.o ABSOLUTE
    ..\..\RT-Thread\src\object.c             0x00000000   Number         0  object.o ABSOLUTE
    ..\..\RT-Thread\src\scheduler.c          0x00000000   Number         0  scheduler.o ABSOLUTE
    ..\..\RT-Thread\src\signal.c             0x00000000   Number         0  signal.o ABSOLUTE
    ..\..\RT-Thread\src\thread.c             0x00000000   Number         0  thread.o ABSOLUTE
    ..\..\RT-Thread\src\timer.c              0x00000000   Number         0  timer.o ABSOLUTE
    ..\\..\\Libraries\\CMSIS\\CoreSupport\\core_cm3.c 0x00000000   Number         0  core_cm3.o ABSOLUTE
    Applications\app_sx1278.c                0x00000000   Number         0  app_sx1278.o ABSOLUTE
    Applications\main.c                      0x00000000   Number         0  main.o ABSOLUTE
    Applications\sys\startup_stm32f10x_md.s  0x00000000   Number         0  startup_stm32f10x_md.o ABSOLUTE
    Applications\sys\stm32f10x_it.c          0x00000000   Number         0  stm32f10x_it.o ABSOLUTE
    Applications\sys\system_stm32f10x.c      0x00000000   Number         0  system_stm32f10x.o ABSOLUTE
    Applications\user_app.c                  0x00000000   Number         0  user_app.o ABSOLUTE
    cdrcmple.s                               0x00000000   Number         0  cdrcmple.o ABSOLUTE
    dc.s                                     0x00000000   Number         0  dc.o ABSOLUTE
    handlers.s                               0x00000000   Number         0  handlers.o ABSOLUTE
    init.s                                   0x00000000   Number         0  init.o ABSOLUTE
    RESET                                    0x08000000   Section      236  startup_stm32f10x_md.o(RESET)
    .ARM.Collect$$$$00000000                 0x080000ec   Section        0  entry.o(.ARM.Collect$$$$00000000)
    .ARM.Collect$$$$00000001                 0x080000ec   Section        4  entry2.o(.ARM.Collect$$$$00000001)
    .ARM.Collect$$$$00000004                 0x080000f0   Section        4  entry5.o(.ARM.Collect$$$$00000004)
    .ARM.Collect$$$$00000008                 0x080000f4   Section        0  entry7b.o(.ARM.Collect$$$$00000008)
    .ARM.Collect$$$$0000000A                 0x080000f4   Section        0  entry8b.o(.ARM.Collect$$$$0000000A)
    .ARM.Collect$$$$0000000B                 0x080000f4   Section        8  entry9a.o(.ARM.Collect$$$$0000000B)
    .ARM.Collect$$$$0000000D                 0x080000fc   Section        0  entry10a.o(.ARM.Collect$$$$0000000D)
    .ARM.Collect$$$$0000000F                 0x080000fc   Section        0  entry11a.o(.ARM.Collect$$$$0000000F)
    .ARM.Collect$$$$00002712                 0x080000fc   Section        4  entry2.o(.ARM.Collect$$$$00002712)
    __lit__00000000                          0x080000fc   Data           4  entry2.o(.ARM.Collect$$$$00002712)
    .text                                    0x08000100   Section       36  startup_stm32f10x_md.o(.text)
    .text                                    0x08000124   Section      240  context_rvds.o(.text)
    .text                                    0x08000214   Section        0  rand.o(.text)
    .text                                    0x08000238   Section        0  memcpya.o(.text)
    .text                                    0x0800025c   Section        0  memseta.o(.text)
    .text                                    0x08000280   Section        0  strstr.o(.text)
    .text                                    0x080002a4   Section        0  strlen.o(.text)
    .text                                    0x080002b2   Section        0  memcmp.o(.text)
    .text                                    0x080002cc   Section        0  strcpy.o(.text)
    .text                                    0x080002de   Section        0  fmul.o(.text)
    .text                                    0x08000342   Section        0  fdiv.o(.text)
    .text                                    0x080003be   Section        0  dadd.o(.text)
    .text                                    0x0800050c   Section        0  dmul.o(.text)
    .text                                    0x080005f0   Section        0  ddiv.o(.text)
    .text                                    0x080006ce   Section        0  ffltui.o(.text)
    .text                                    0x080006d8   Section        0  dflti.o(.text)
    .text                                    0x080006fa   Section        0  dfltui.o(.text)
    .text                                    0x08000714   Section        0  ffixui.o(.text)
    .text                                    0x0800073c   Section        0  dfixui.o(.text)
    .text                                    0x0800076e   Section        0  uldiv.o(.text)
    .text                                    0x080007d0   Section        0  llshl.o(.text)
    .text                                    0x080007ee   Section        0  llushr.o(.text)
    .text                                    0x0800080e   Section        0  llsshr.o(.text)
    .text                                    0x08000832   Section        0  iusefp.o(.text)
    .text                                    0x08000832   Section        0  fepilogue.o(.text)
    .text                                    0x080008a0   Section        0  depilogue.o(.text)
    .text                                    0x0800095c   Section       36  init.o(.text)
    i.$Sub$$main                             0x08000980   Section        0  components.o(i.$Sub$$main)
    i.APP_Init                               0x08000990   Section        0  user_app.o(i.APP_Init)
    i.BKP_DeInit                             0x080009ec   Section        0  stm32f10x_bkp.o(i.BKP_DeInit)
    i.BKP_RTCOutputConfig                    0x080009fc   Section        0  stm32f10x_bkp.o(i.BKP_RTCOutputConfig)
    i.BKP_ReadBackupRegister                 0x08000a18   Section        0  stm32f10x_bkp.o(i.BKP_ReadBackupRegister)
    i.BKP_TamperPinCmd                       0x08000a34   Section        0  stm32f10x_bkp.o(i.BKP_TamperPinCmd)
    i.BKP_WriteBackupRegister                0x08000a40   Section        0  stm32f10x_bkp.o(i.BKP_WriteBackupRegister)
    i.BusFault_Handler                       0x08000a5c   Section        0  stm32f10x_it.o(i.BusFault_Handler)
    i.DebugMon_Handler                       0x08000a60   Section        0  stm32f10x_it.o(i.DebugMon_Handler)
    i.DecryptTEA                             0x08000a64   Section        0  drv_encrypt.o(i.DecryptTEA)
    i.EncryptTEA                             0x08000ad0   Section        0  drv_encrypt.o(i.EncryptTEA)
    i.FLASH_PrefetchBufferCmd                0x08000b34   Section        0  stm32f10x_flash.o(i.FLASH_PrefetchBufferCmd)
    i.FLASH_SetLatency                       0x08000b50   Section        0  stm32f10x_flash.o(i.FLASH_SetLatency)
    i.GPIO_Init                              0x08000b68   Section        0  stm32f10x_gpio.o(i.GPIO_Init)
    i.GPIO_PinRemapConfig                    0x08000c7c   Section        0  stm32f10x_gpio.o(i.GPIO_PinRemapConfig)
    i.GPIO_ResetBits                         0x08000d0c   Section        0  stm32f10x_gpio.o(i.GPIO_ResetBits)
    i.GPIO_SetBits                           0x08000d10   Section        0  stm32f10x_gpio.o(i.GPIO_SetBits)
    i.HSI_Config                             0x08000d14   Section        0  system_stm32f10x.o(i.HSI_Config)
    i.MemManage_Handler                      0x08000db0   Section        0  stm32f10x_it.o(i.MemManage_Handler)
    i.NMI_Handler                            0x08000db4   Section        0  stm32f10x_it.o(i.NMI_Handler)
    i.NVIC_Init                              0x08000db8   Section        0  misc.o(i.NVIC_Init)
    i.PWR_BackupAccessCmd                    0x08000e2c   Section        0  stm32f10x_pwr.o(i.PWR_BackupAccessCmd)
    i.RCC_APB1PeriphClockCmd                 0x08000e38   Section        0  stm32f10x_rcc.o(i.RCC_APB1PeriphClockCmd)
    i.RCC_APB2PeriphClockCmd                 0x08000e58   Section        0  stm32f10x_rcc.o(i.RCC_APB2PeriphClockCmd)
    i.RCC_BackupResetCmd                     0x08000e78   Section        0  stm32f10x_rcc.o(i.RCC_BackupResetCmd)
    i.RCC_DeInit                             0x08000e84   Section        0  stm32f10x_rcc.o(i.RCC_DeInit)
    i.RCC_GetClocksFreq                      0x08000ed0   Section        0  stm32f10x_rcc.o(i.RCC_GetClocksFreq)
    i.RCC_GetFlagStatus                      0x08000fa4   Section        0  stm32f10x_rcc.o(i.RCC_GetFlagStatus)
    i.RCC_GetSYSCLKSource                    0x08000fe0   Section        0  stm32f10x_rcc.o(i.RCC_GetSYSCLKSource)
    i.RCC_HCLKConfig                         0x08000ff0   Section        0  stm32f10x_rcc.o(i.RCC_HCLKConfig)
    i.RCC_HSICmd                             0x08001008   Section        0  stm32f10x_rcc.o(i.RCC_HSICmd)
    i.RCC_LSEConfig                          0x08001014   Section        0  stm32f10x_rcc.o(i.RCC_LSEConfig)
    i.RCC_LSICmd                             0x08001048   Section        0  stm32f10x_rcc.o(i.RCC_LSICmd)
    i.RCC_PCLK1Config                        0x08001054   Section        0  stm32f10x_rcc.o(i.RCC_PCLK1Config)
    i.RCC_PCLK2Config                        0x0800106c   Section        0  stm32f10x_rcc.o(i.RCC_PCLK2Config)
    i.RCC_PLLCmd                             0x08001084   Section        0  stm32f10x_rcc.o(i.RCC_PLLCmd)
    i.RCC_PLLConfig                          0x08001090   Section        0  stm32f10x_rcc.o(i.RCC_PLLConfig)
    i.RCC_RTCCLKCmd                          0x080010ac   Section        0  stm32f10x_rcc.o(i.RCC_RTCCLKCmd)
    i.RCC_RTCCLKConfig                       0x080010b8   Section        0  stm32f10x_rcc.o(i.RCC_RTCCLKConfig)
    i.RCC_SYSCLKConfig                       0x080010c8   Section        0  stm32f10x_rcc.o(i.RCC_SYSCLKConfig)
    i.RTC_ClearITPendingBit                  0x080010e0   Section        0  stm32f10x_rtc.o(i.RTC_ClearITPendingBit)
    i.RTC_EnterConfigMode                    0x080010f0   Section        0  stm32f10x_rtc.o(i.RTC_EnterConfigMode)
    i.RTC_ExitConfigMode                     0x08001104   Section        0  stm32f10x_rtc.o(i.RTC_ExitConfigMode)
    i.RTC_GetITStatus                        0x08001118   Section        0  stm32f10x_rtc.o(i.RTC_GetITStatus)
    i.RTC_IRQHandler                         0x0800113c   Section        0  stm32f10x_it.o(i.RTC_IRQHandler)
    i.RTC_SetCounter                         0x08001150   Section        0  stm32f10x_rtc.o(i.RTC_SetCounter)
    i.RTC_WaitForLastTask                    0x0800116c   Section        0  stm32f10x_rtc.o(i.RTC_WaitForLastTask)
    i.RTC_WaitForSynchro                     0x08001180   Section        0  stm32f10x_rtc.o(i.RTC_WaitForSynchro)
    i.SPI_Cmd                                0x080011a0   Section        0  stm32f10x_spi.o(i.SPI_Cmd)
    i.SPI_I2S_GetFlagStatus                  0x080011b8   Section        0  stm32f10x_spi.o(i.SPI_I2S_GetFlagStatus)
    i.SPI_I2S_ReceiveData                    0x080011ca   Section        0  stm32f10x_spi.o(i.SPI_I2S_ReceiveData)
    i.SPI_I2S_SendData                       0x080011d0   Section        0  stm32f10x_spi.o(i.SPI_I2S_SendData)
    i.SPI_Init                               0x080011d4   Section        0  stm32f10x_spi.o(i.SPI_Init)
    i.SVC_Handler                            0x08001210   Section        0  stm32f10x_it.o(i.SVC_Handler)
    i.SysTick_Handler                        0x08001214   Section        0  board.o(i.SysTick_Handler)
    i.SystemCoreClockUpdate                  0x08001250   Section        0  system_stm32f10x.o(i.SystemCoreClockUpdate)
    i.SystemInit                             0x080012f4   Section        0  system_stm32f10x.o(i.SystemInit)
    i.UART1_Init                             0x08001308   Section        0  drv_uart.o(i.UART1_Init)
    i.UART2_Init                             0x080013d0   Section        0  drv_uart.o(i.UART2_Init)
    i.UART3_Init                             0x08001494   Section        0  drv_uart.o(i.UART3_Init)
    i.UART_Clear                             0x0800155c   Section        0  drv_uart.o(i.UART_Clear)
    i.UART_Init                              0x08001574   Section        0  drv_uart.o(i.UART_Init)
    i.USART1_IRQHandler                      0x0800159c   Section        0  drv_uart.o(i.USART1_IRQHandler)
    i.USART2_IRQHandler                      0x08001608   Section        0  drv_uart.o(i.USART2_IRQHandler)
    i.USART3_IRQHandler                      0x08001680   Section        0  drv_uart.o(i.USART3_IRQHandler)
    i.USART_ClearFlag                        0x080016ec   Section        0  stm32f10x_usart.o(i.USART_ClearFlag)
    i.USART_ClearITPendingBit                0x080016fe   Section        0  stm32f10x_usart.o(i.USART_ClearITPendingBit)
    i.USART_Cmd                              0x0800171c   Section        0  stm32f10x_usart.o(i.USART_Cmd)
    i.USART_GetFlagStatus                    0x08001734   Section        0  stm32f10x_usart.o(i.USART_GetFlagStatus)
    i.USART_GetITStatus                      0x0800174e   Section        0  stm32f10x_usart.o(i.USART_GetITStatus)
    i.USART_ITConfig                         0x080017a2   Section        0  stm32f10x_usart.o(i.USART_ITConfig)
    i.USART_Init                             0x080017ec   Section        0  stm32f10x_usart.o(i.USART_Init)
    i.USART_ReceiveData                      0x080018c4   Section        0  stm32f10x_usart.o(i.USART_ReceiveData)
    i.USART_SendData                         0x080018ce   Section        0  stm32f10x_usart.o(i.USART_SendData)
    i.UsageFault_Handler                     0x080018d6   Section        0  stm32f10x_it.o(i.UsageFault_Handler)
    i.WWDG_Enable                            0x080018dc   Section        0  stm32f10x_wwdg.o(i.WWDG_Enable)
    i.WWDG_SetPrescaler                      0x080018ec   Section        0  stm32f10x_wwdg.o(i.WWDG_SetPrescaler)
    i.WWDG_SetWindowValue                    0x08001904   Section        0  stm32f10x_wwdg.o(i.WWDG_SetWindowValue)
    i._SysTick_Config                        0x0800192c   Section        0  board.o(i._SysTick_Config)
    _SysTick_Config                          0x0800192d   Thumb Code    44  board.o(i._SysTick_Config)
    i.__0printf$8                            0x0800195c   Section        0  printf8.o(i.__0printf$8)
    i.__rt_ffs                               0x0800197c   Section        0  kservice.o(i.__rt_ffs)
    i.__scatterload_copy                     0x080019c8   Section       14  handlers.o(i.__scatterload_copy)
    i.__scatterload_null                     0x080019d6   Section        2  handlers.o(i.__scatterload_null)
    i.__scatterload_zeroinit                 0x080019d8   Section       14  handlers.o(i.__scatterload_zeroinit)
    i._has_defunct_thread                    0x080019e8   Section        0  idle.o(i._has_defunct_thread)
    _has_defunct_thread                      0x080019e9   Thumb Code    16  idle.o(i._has_defunct_thread)
    i._printf_core                           0x080019fc   Section        0  printf8.o(i._printf_core)
    _printf_core                             0x080019fd   Thumb Code   996  printf8.o(i._printf_core)
    i._printf_post_padding                   0x08001e0c   Section        0  printf8.o(i._printf_post_padding)
    _printf_post_padding                     0x08001e0d   Thumb Code    36  printf8.o(i._printf_post_padding)
    i._printf_pre_padding                    0x08001e30   Section        0  printf8.o(i._printf_pre_padding)
    _printf_pre_padding                      0x08001e31   Thumb Code    46  printf8.o(i._printf_pre_padding)
    i._rt_thread_init                        0x08001e60   Section        0  thread.o(i._rt_thread_init)
    _rt_thread_init                          0x08001e61   Thumb Code   124  thread.o(i._rt_thread_init)
    i._rt_timer_init                         0x08001ee4   Section        0  timer.o(i._rt_timer_init)
    _rt_timer_init                           0x08001ee5   Thumb Code    66  timer.o(i._rt_timer_init)
    i._rt_timer_remove                       0x08001f26   Section        0  timer.o(i._rt_timer_remove)
    _rt_timer_remove                         0x08001f27   Thumb Code    46  timer.o(i._rt_timer_remove)
    i.aes_decrypt_buff                       0x08001f54   Section        0  drv_encrypt.o(i.aes_decrypt_buff)
    i.aes_encrypt_buff                       0x08002018   Section        0  drv_encrypt.o(i.aes_encrypt_buff)
    i.aes_gen_tables                         0x08002118   Section        0  aes.o(i.aes_gen_tables)
    aes_gen_tables                           0x08002119   Thumb Code   574  aes.o(i.aes_gen_tables)
    i.app_sx1278_cs0                         0x0800238c   Section        0  app_sx1278.o(i.app_sx1278_cs0)
    app_sx1278_cs0                           0x0800238d   Thumb Code    12  app_sx1278.o(i.app_sx1278_cs0)
    i.app_sx1278_cs1                         0x0800239c   Section        0  app_sx1278.o(i.app_sx1278_cs1)
    app_sx1278_cs1                           0x0800239d   Thumb Code    12  app_sx1278.o(i.app_sx1278_cs1)
    i.app_sx1278_hal_init                    0x080023ac   Section        0  app_sx1278.o(i.app_sx1278_hal_init)
    app_sx1278_hal_init                      0x080023ad   Thumb Code   236  app_sx1278.o(i.app_sx1278_hal_init)
    i.app_sx1278_init                        0x080024d4   Section        0  app_sx1278.o(i.app_sx1278_init)
    i.app_sx1278_reset                       0x080024ec   Section        0  app_sx1278.o(i.app_sx1278_reset)
    app_sx1278_reset                         0x080024ed   Thumb Code    36  app_sx1278.o(i.app_sx1278_reset)
    i.app_sx1278_spi_rw_byte                 0x08002514   Section        0  app_sx1278.o(i.app_sx1278_spi_rw_byte)
    app_sx1278_spi_rw_byte                   0x08002515   Thumb Code    50  app_sx1278.o(i.app_sx1278_spi_rw_byte)
    i.app_sx1278_thread_entry                0x0800254c   Section        0  app_sx1278.o(i.app_sx1278_thread_entry)
    i.app_uart_thread_entry                  0x0800257c   Section        0  user_app.o(i.app_uart_thread_entry)
    i.bsp_pow2                               0x08002610   Section        0  drv_sx1278.o(i.bsp_pow2)
    bsp_pow2                                 0x08002611   Thumb Code    26  drv_sx1278.o(i.bsp_pow2)
    i.bsp_sx1278_set_param                   0x0800262c   Section        0  app_sx1278.o(i.bsp_sx1278_set_param)
    i.delay_ms                               0x08002654   Section        0  drv_common.o(i.delay_ms)
    i.delay_os                               0x08002674   Section        0  drv_common.o(i.delay_os)
    i.drv_common_init                        0x0800268c   Section        0  drv_common.o(i.drv_common_init)
    i.drv_crc16                              0x08002724   Section        0  drv_common.o(i.drv_crc16)
    i.drv_get_sec_counter                    0x0800275c   Section        0  drv_common.o(i.drv_get_sec_counter)
    i.drv_rtc_init                           0x08002768   Section        0  drv_common.o(i.drv_rtc_init)
    i.drv_set_rtc_counter                    0x0800285c   Section        0  drv_common.o(i.drv_set_rtc_counter)
    i.drv_sx1278_cad_check                   0x08002868   Section        0  drv_sx1278.o(i.drv_sx1278_cad_check)
    i.drv_sx1278_cad_init                    0x080028e8   Section        0  drv_sx1278.o(i.drv_sx1278_cad_init)
    i.drv_sx1278_calcu_air_time              0x08002928   Section        0  drv_sx1278.o(i.drv_sx1278_calcu_air_time)
    i.drv_sx1278_get_rf_freq                 0x08002a60   Section        0  drv_sx1278.o(i.drv_sx1278_get_rf_freq)
    i.drv_sx1278_get_version                 0x08002a9e   Section        0  drv_sx1278.o(i.drv_sx1278_get_version)
    i.drv_sx1278_init                        0x08002aac   Section        0  drv_sx1278.o(i.drv_sx1278_init)
    i.drv_sx1278_read_rssi                   0x08002af0   Section        0  drv_sx1278.o(i.drv_sx1278_read_rssi)
    i.drv_sx1278_recv_check                  0x08002b4c   Section        0  drv_sx1278.o(i.drv_sx1278_recv_check)
    i.drv_sx1278_recv_init                   0x08002bb2   Section        0  drv_sx1278.o(i.drv_sx1278_recv_init)
    i.drv_sx1278_send                        0x08002c04   Section        0  drv_sx1278.o(i.drv_sx1278_send)
    i.drv_sx1278_send_check                  0x08002c94   Section        0  drv_sx1278.o(i.drv_sx1278_send_check)
    i.drv_sx1278_set_bw                      0x08002cba   Section        0  drv_sx1278.o(i.drv_sx1278_set_bw)
    i.drv_sx1278_set_default_param           0x08002cdc   Section        0  drv_sx1278.o(i.drv_sx1278_set_default_param)
    i.drv_sx1278_set_error_coding            0x08002d6c   Section        0  drv_sx1278.o(i.drv_sx1278_set_error_coding)
    i.drv_sx1278_set_implicit_header_on      0x08002d90   Section        0  drv_sx1278.o(i.drv_sx1278_set_implicit_header_on)
    i.drv_sx1278_set_lowdatarateoptimize     0x08002db2   Section        0  drv_sx1278.o(i.drv_sx1278_set_lowdatarateoptimize)
    i.drv_sx1278_set_nb_trig_peaks           0x08002dd4   Section        0  drv_sx1278.o(i.drv_sx1278_set_nb_trig_peaks)
    i.drv_sx1278_set_on                      0x08002df6   Section        0  drv_sx1278.o(i.drv_sx1278_set_on)
    i.drv_sx1278_set_op_mode                 0x08002e3a   Section        0  drv_sx1278.o(i.drv_sx1278_set_op_mode)
    i.drv_sx1278_set_pa20dBm                 0x08002e5c   Section        0  drv_sx1278.o(i.drv_sx1278_set_pa20dBm)
    i.drv_sx1278_set_pa_output               0x08002e98   Section        0  drv_sx1278.o(i.drv_sx1278_set_pa_output)
    i.drv_sx1278_set_packet_crc_on           0x08002eba   Section        0  drv_sx1278.o(i.drv_sx1278_set_packet_crc_on)
    i.drv_sx1278_set_payload_length          0x08002edc   Section        0  drv_sx1278.o(i.drv_sx1278_set_payload_length)
    i.drv_sx1278_set_rf_freq                 0x08002ef0   Section        0  drv_sx1278.o(i.drv_sx1278_set_rf_freq)
    i.drv_sx1278_set_rf_power                0x08002f3c   Section        0  drv_sx1278.o(i.drv_sx1278_set_rf_power)
    i.drv_sx1278_set_sf                      0x08002fd4   Section        0  drv_sx1278.o(i.drv_sx1278_set_sf)
    i.drv_sx1278_set_symb_timeout            0x0800302c   Section        0  drv_sx1278.o(i.drv_sx1278_set_symb_timeout)
    i.drv_system_reset                       0x08003060   Section        0  drv_common.o(i.drv_system_reset)
    i.drv_wdog_feed                          0x080030a0   Section        0  drv_common.o(i.drv_wdog_feed)
    i.drv_wdog_init                          0x080030a2   Section        0  drv_common.o(i.drv_wdog_init)
    i.fputc                                  0x080030a4   Section        0  drv_uart.o(i.fputc)
    i.hal_sx1278_read_addr                   0x080030c8   Section        0  hal_sx1278.o(i.hal_sx1278_read_addr)
    i.hal_sx1278_read_buffer                 0x080030e4   Section        0  hal_sx1278.o(i.hal_sx1278_read_buffer)
    i.hal_sx1278_read_fifo                   0x0800311e   Section        0  hal_sx1278.o(i.hal_sx1278_read_fifo)
    i.hal_sx1278_rst                         0x08003134   Section        0  hal_sx1278.o(i.hal_sx1278_rst)
    i.hal_sx1278_spi_rw_byte                 0x0800313e   Section        0  hal_sx1278.o(i.hal_sx1278_spi_rw_byte)
    i.hal_sx1278_write_addr                  0x08003150   Section        0  hal_sx1278.o(i.hal_sx1278_write_addr)
    i.hal_sx1278_write_buffer                0x08003164   Section        0  hal_sx1278.o(i.hal_sx1278_write_buffer)
    i.hal_sx1278_write_fifo                  0x0800319c   Section        0  hal_sx1278.o(i.hal_sx1278_write_fifo)
    i.main                                   0x080031b4   Section        0  main.o(i.main)
    i.main_thread_entry                      0x0800325c   Section        0  components.o(i.main_thread_entry)
    i.mbedtls_aes_crypt_cbc                  0x0800326a   Section        0  aes.o(i.mbedtls_aes_crypt_cbc)
    i.mbedtls_aes_crypt_ecb                  0x0800330c   Section        0  aes.o(i.mbedtls_aes_crypt_ecb)
    i.mbedtls_aes_free                       0x08003332   Section        0  aes.o(i.mbedtls_aes_free)
    i.mbedtls_aes_init                       0x08003348   Section        0  aes.o(i.mbedtls_aes_init)
    i.mbedtls_aes_setkey_dec                 0x08003358   Section        0  aes.o(i.mbedtls_aes_setkey_dec)
    i.mbedtls_aes_setkey_enc                 0x08003438   Section        0  aes.o(i.mbedtls_aes_setkey_enc)
    i.mbedtls_internal_aes_decrypt           0x0800364c   Section        0  aes.o(i.mbedtls_internal_aes_decrypt)
    i.mbedtls_internal_aes_encrypt           0x08003b50   Section        0  aes.o(i.mbedtls_internal_aes_encrypt)
    i.mbedtls_zeroize                        0x08004054   Section        0  aes.o(i.mbedtls_zeroize)
    mbedtls_zeroize                          0x08004055   Thumb Code    22  aes.o(i.mbedtls_zeroize)
    i.nwk_aes_decrypt                        0x0800406a   Section        0  nwk_bsp.o(i.nwk_aes_decrypt)
    i.nwk_aes_encrypt                        0x0800408e   Section        0  nwk_bsp.o(i.nwk_aes_encrypt)
    i.nwk_crc16                              0x080040b2   Section        0  nwk_bsp.o(i.nwk_crc16)
    i.nwk_delay_ms                           0x080040c2   Section        0  nwk_bsp.o(i.nwk_delay_ms)
    i.nwk_find_head                          0x080040ce   Section        0  nwk_bsp.o(i.nwk_find_head)
    i.nwk_get_channel                        0x08004118   Section        0  nwk_bsp.o(i.nwk_get_channel)
    i.nwk_get_rand                           0x0800413c   Section        0  nwk_bsp.o(i.nwk_get_rand)
    i.nwk_get_rtc_counter                    0x08004168   Section        0  nwk_bsp.o(i.nwk_get_rtc_counter)
    i.nwk_node_cad_check                     0x08004170   Section        0  nwk_node.o(i.nwk_node_cad_check)
    i.nwk_node_cad_init                      0x0800418c   Section        0  nwk_node.o(i.nwk_node_cad_init)
    i.nwk_node_calcu_air_time                0x080041a8   Section        0  nwk_node.o(i.nwk_node_calcu_air_time)
    i.nwk_node_main                          0x080041c8   Section        0  nwk_node.o(i.nwk_node_main)
    i.nwk_node_make_send_buff                0x08004230   Section        0  nwk_node.o(i.nwk_node_make_send_buff)
    i.nwk_node_recv_check                    0x080043c4   Section        0  nwk_node.o(i.nwk_node_recv_check)
    i.nwk_node_recv_from_check               0x080043f8   Section        0  nwk_node.o(i.nwk_node_recv_from_check)
    i.nwk_node_recv_init                     0x08004410   Section        0  nwk_node.o(i.nwk_node_recv_init)
    i.nwk_node_recv_parse                    0x0800442c   Section        0  nwk_node.o(i.nwk_node_recv_parse)
    i.nwk_node_rx_process                    0x08004880   Section        0  nwk_node.o(i.nwk_node_rx_process)
    i.nwk_node_search_gw                     0x08004a54   Section        0  nwk_node.o(i.nwk_node_search_gw)
    i.nwk_node_search_process                0x08004a80   Section        0  nwk_node.o(i.nwk_node_search_process)
    i.nwk_node_select_gw                     0x08004c1c   Section        0  nwk_node.o(i.nwk_node_select_gw)
    i.nwk_node_send_buff                     0x08004c40   Section        0  nwk_node.o(i.nwk_node_send_buff)
    i.nwk_node_send_check                    0x08004c64   Section        0  nwk_node.o(i.nwk_node_send_check)
    i.nwk_node_send_sniff                    0x08004c80   Section        0  nwk_node.o(i.nwk_node_send_sniff)
    i.nwk_node_set_lora_param                0x08004d10   Section        0  nwk_node.o(i.nwk_node_set_lora_param)
    i.nwk_node_sleep_init                    0x08004d48   Section        0  nwk_node.o(i.nwk_node_sleep_init)
    i.nwk_node_tx_d2d_process                0x08004d64   Section        0  nwk_node.o(i.nwk_node_tx_d2d_process)
    i.nwk_node_tx_gw_process                 0x08004d74   Section        0  nwk_node.o(i.nwk_node_tx_gw_process)
    i.nwk_node_work_check                    0x080051f4   Section        0  nwk_node.o(i.nwk_node_work_check)
    i.nwk_set_lora_dev                       0x08005480   Section        0  nwk_node.o(i.nwk_set_lora_dev)
    i.nwk_set_rtc_counter                    0x0800548c   Section        0  nwk_bsp.o(i.nwk_set_rtc_counter)
    i.nwk_slave_calcu_air_time               0x08005498   Section        0  nwk_slave.o(i.nwk_slave_calcu_air_time)
    i.nwk_slave_send_buff                    0x080054b8   Section        0  nwk_slave.o(i.nwk_slave_send_buff)
    i.nwk_slave_set_lora_dev                 0x080054dc   Section        0  nwk_slave.o(i.nwk_slave_set_lora_dev)
    i.nwk_slave_set_lora_param               0x080054e8   Section        0  nwk_slave.o(i.nwk_slave_set_lora_param)
    i.nwk_slave_uart_parse                   0x08005520   Section        0  nwk_slave.o(i.nwk_slave_uart_parse)
    i.nwk_tea_decrypt                        0x080057d0   Section        0  nwk_bsp.o(i.nwk_tea_decrypt)
    i.nwk_tea_encrypt                        0x080057e4   Section        0  nwk_bsp.o(i.nwk_tea_encrypt)
    i.plug_holes                             0x080057f8   Section        0  mem.o(i.plug_holes)
    plug_holes                               0x080057f9   Thumb Code   108  mem.o(i.plug_holes)
    i.printf_hex                             0x08005870   Section        0  drv_common.o(i.printf_hex)
    i.rt_application_init                    0x080058b0   Section        0  components.o(i.rt_application_init)
    i.rt_components_board_init               0x080058e0   Section        0  components.o(i.rt_components_board_init)
    i.rt_components_init                     0x080058fc   Section        0  components.o(i.rt_components_init)
    i.rt_enter_critical                      0x08005918   Section        0  scheduler.o(i.rt_enter_critical)
    i.rt_exit_critical                       0x08005938   Section        0  scheduler.o(i.rt_exit_critical)
    i.rt_free                                0x08005974   Section        0  mem.o(i.rt_free)
    i.rt_heap_begin_get                      0x080059ec   Section        0  board.o(i.rt_heap_begin_get)
    i.rt_heap_end_get                        0x080059f4   Section        0  board.o(i.rt_heap_end_get)
    i.rt_hw_board_init                       0x080059fc   Section        0  board.o(i.rt_hw_board_init)
    i.rt_hw_hard_fault_exception             0x08005a38   Section        0  cpuport.o(i.rt_hw_hard_fault_exception)
    i.rt_hw_stack_init                       0x08005a5c   Section        0  cpuport.o(i.rt_hw_stack_init)
    i.rt_interrupt_enter                     0x08005aa8   Section        0  irq.o(i.rt_interrupt_enter)
    i.rt_interrupt_leave                     0x08005ac8   Section        0  irq.o(i.rt_interrupt_leave)
    i.rt_ipc_list_resume                     0x08005ae8   Section        0  ipc.o(i.rt_ipc_list_resume)
    rt_ipc_list_resume                       0x08005ae9   Thumb Code    20  ipc.o(i.rt_ipc_list_resume)
    i.rt_ipc_list_suspend                    0x08005afc   Section        0  ipc.o(i.rt_ipc_list_suspend)
    rt_ipc_list_suspend                      0x08005afd   Thumb Code   108  ipc.o(i.rt_ipc_list_suspend)
    i.rt_ipc_object_init                     0x08005b68   Section        0  ipc.o(i.rt_ipc_object_init)
    rt_ipc_object_init                       0x08005b69   Thumb Code    16  ipc.o(i.rt_ipc_object_init)
    i.rt_list_init                           0x08005b78   Section        0  ipc.o(i.rt_list_init)
    rt_list_init                             0x08005b79   Thumb Code     6  ipc.o(i.rt_list_init)
    i.rt_list_init                           0x08005b7e   Section        0  scheduler.o(i.rt_list_init)
    rt_list_init                             0x08005b7f   Thumb Code     6  scheduler.o(i.rt_list_init)
    i.rt_list_init                           0x08005b84   Section        0  timer.o(i.rt_list_init)
    rt_list_init                             0x08005b85   Thumb Code     6  timer.o(i.rt_list_init)
    i.rt_list_insert_after                   0x08005b8a   Section        0  object.o(i.rt_list_insert_after)
    rt_list_insert_after                     0x08005b8b   Thumb Code    14  object.o(i.rt_list_insert_after)
    i.rt_list_insert_after                   0x08005b98   Section        0  thread.o(i.rt_list_insert_after)
    rt_list_insert_after                     0x08005b99   Thumb Code    14  thread.o(i.rt_list_insert_after)
    i.rt_list_insert_after                   0x08005ba6   Section        0  timer.o(i.rt_list_insert_after)
    rt_list_insert_after                     0x08005ba7   Thumb Code    14  timer.o(i.rt_list_insert_after)
    i.rt_list_insert_before                  0x08005bb4   Section        0  ipc.o(i.rt_list_insert_before)
    rt_list_insert_before                    0x08005bb5   Thumb Code    14  ipc.o(i.rt_list_insert_before)
    i.rt_list_isempty                        0x08005bc2   Section        0  ipc.o(i.rt_list_isempty)
    rt_list_isempty                          0x08005bc3   Thumb Code    16  ipc.o(i.rt_list_isempty)
    i.rt_list_isempty                        0x08005bd2   Section        0  timer.o(i.rt_list_isempty)
    rt_list_isempty                          0x08005bd3   Thumb Code    16  timer.o(i.rt_list_isempty)
    i.rt_list_remove                         0x08005be2   Section        0  object.o(i.rt_list_remove)
    rt_list_remove                           0x08005be3   Thumb Code    18  object.o(i.rt_list_remove)
    i.rt_list_remove                         0x08005bf4   Section        0  thread.o(i.rt_list_remove)
    rt_list_remove                           0x08005bf5   Thumb Code    18  thread.o(i.rt_list_remove)
    i.rt_malloc                              0x08005c08   Section        0  mem.o(i.rt_malloc)
    i.rt_memset                              0x08005d74   Section        0  kservice.o(i.rt_memset)
    i.rt_object_allocate                     0x08005dbc   Section        0  object.o(i.rt_object_allocate)
    i.rt_object_delete                       0x08005e06   Section        0  object.o(i.rt_object_delete)
    i.rt_object_detach                       0x08005e26   Section        0  object.o(i.rt_object_detach)
    i.rt_object_get_information              0x08005e40   Section        0  object.o(i.rt_object_get_information)
    i.rt_object_init                         0x08005e68   Section        0  object.o(i.rt_object_init)
    i.rt_object_is_systemobject              0x08005ea4   Section        0  object.o(i.rt_object_is_systemobject)
    i.rt_schedule                            0x08005eb8   Section        0  scheduler.o(i.rt_schedule)
    i.rt_schedule_insert_thread              0x08005f48   Section        0  scheduler.o(i.rt_schedule_insert_thread)
    i.rt_schedule_remove_thread              0x08005f98   Section        0  scheduler.o(i.rt_schedule_remove_thread)
    i.rt_sem_init                            0x08005fec   Section        0  ipc.o(i.rt_sem_init)
    i.rt_sem_release                         0x08006012   Section        0  ipc.o(i.rt_sem_release)
    i.rt_sem_take                            0x0800604c   Section        0  ipc.o(i.rt_sem_take)
    i.rt_show_version                        0x080060c0   Section        0  kservice.o(i.rt_show_version)
    i.rt_strncpy                             0x080060c2   Section        0  kservice.o(i.rt_strncpy)
    i.rt_system_heap_init                    0x080060f8   Section        0  mem.o(i.rt_system_heap_init)
    i.rt_system_scheduler_init               0x080061a8   Section        0  scheduler.o(i.rt_system_scheduler_init)
    i.rt_system_scheduler_start              0x080061f4   Section        0  scheduler.o(i.rt_system_scheduler_start)
    i.rt_system_timer_init                   0x08006224   Section        0  timer.o(i.rt_system_timer_init)
    i.rt_system_timer_thread_init            0x08006240   Section        0  timer.o(i.rt_system_timer_thread_init)
    i.rt_thread_create                       0x08006242   Section        0  thread.o(i.rt_thread_create)
    i.rt_thread_delay                        0x08006292   Section        0  thread.o(i.rt_thread_delay)
    i.rt_thread_exit                         0x080062a0   Section        0  thread.o(i.rt_thread_exit)
    i.rt_thread_idle_entry                   0x080062f4   Section        0  idle.o(i.rt_thread_idle_entry)
    rt_thread_idle_entry                     0x080062f5   Thumb Code     8  idle.o(i.rt_thread_idle_entry)
    i.rt_thread_idle_excute                  0x080062fc   Section        0  idle.o(i.rt_thread_idle_excute)
    i.rt_thread_idle_init                    0x08006380   Section        0  idle.o(i.rt_thread_idle_init)
    i.rt_thread_init                         0x080063bc   Section        0  thread.o(i.rt_thread_init)
    i.rt_thread_resume                       0x080063f0   Section        0  thread.o(i.rt_thread_resume)
    i.rt_thread_self                         0x0800642c   Section        0  thread.o(i.rt_thread_self)
    i.rt_thread_sleep                        0x08006438   Section        0  thread.o(i.rt_thread_sleep)
    i.rt_thread_startup                      0x0800647c   Section        0  thread.o(i.rt_thread_startup)
    i.rt_thread_suspend                      0x080064a8   Section        0  thread.o(i.rt_thread_suspend)
    i.rt_thread_timeout                      0x080064ec   Section        0  thread.o(i.rt_thread_timeout)
    i.rt_thread_yield                        0x0800650c   Section        0  thread.o(i.rt_thread_yield)
    i.rt_tick_get                            0x08006570   Section        0  clock.o(i.rt_tick_get)
    i.rt_tick_increase                       0x0800657c   Section        0  clock.o(i.rt_tick_increase)
    i.rt_timer_check                         0x080065ac   Section        0  timer.o(i.rt_timer_check)
    i.rt_timer_control                       0x08006628   Section        0  timer.o(i.rt_timer_control)
    i.rt_timer_detach                        0x08006660   Section        0  timer.o(i.rt_timer_detach)
    i.rt_timer_init                          0x08006680   Section        0  timer.o(i.rt_timer_init)
    i.rt_timer_start                         0x080066b0   Section        0  timer.o(i.rt_timer_start)
    i.rt_timer_stop                          0x080067a8   Section        0  timer.o(i.rt_timer_stop)
    i.rti_board_end                          0x080067d8   Section        0  components.o(i.rti_board_end)
    rti_board_end                            0x080067d9   Thumb Code     4  components.o(i.rti_board_end)
    i.rti_board_start                        0x080067dc   Section        0  components.o(i.rti_board_start)
    rti_board_start                          0x080067dd   Thumb Code     4  components.o(i.rti_board_start)
    i.rti_end                                0x080067e0   Section        0  components.o(i.rti_end)
    rti_end                                  0x080067e1   Thumb Code     4  components.o(i.rti_end)
    i.rti_start                              0x080067e4   Section        0  components.o(i.rti_start)
    rti_start                                0x080067e5   Thumb Code     4  components.o(i.rti_start)
    i.rtthread_startup                       0x080067e8   Section        0  components.o(i.rtthread_startup)
    i.tea_decrypt_buff                       0x08006814   Section        0  drv_encrypt.o(i.tea_decrypt_buff)
    i.tea_encrypt_buff                       0x0800687c   Section        0  drv_encrypt.o(i.tea_encrypt_buff)
    .constdata                               0x080068e4   Section      512  drv_common.o(.constdata)
    auchCRCHi                                0x080068e4   Data         256  drv_common.o(.constdata)
    auchCRCLo                                0x080069e4   Data         256  drv_common.o(.constdata)
    .constdata                               0x08006ae4   Section      290  kservice.o(.constdata)
    small_digits                             0x08006be4   Data          17  kservice.o(.constdata)
    large_digits                             0x08006bf5   Data          17  kservice.o(.constdata)
    .constdata                               0x08006c06   Section       42  nwk_bsp.o(.constdata)
    rf_table                                 0x08006c06   Data          42  nwk_bsp.o(.constdata)
    .rti_fn.0                                0x08006c30   Section        4  components.o(.rti_fn.0)
    __tagsym$$used                           0x08006c30   Number         0  components.o(.rti_fn.0)
    .rti_fn.0.end                            0x08006c34   Section        4  components.o(.rti_fn.0.end)
    __tagsym$$used                           0x08006c34   Number         0  components.o(.rti_fn.0.end)
    .rti_fn.1.end                            0x08006c38   Section        4  components.o(.rti_fn.1.end)
    __tagsym$$used                           0x08006c38   Number         0  components.o(.rti_fn.1.end)
    .rti_fn.6.end                            0x08006c3c   Section        4  components.o(.rti_fn.6.end)
    __tagsym$$used                           0x08006c3c   Number         0  components.o(.rti_fn.6.end)
    .data                                    0x20000000   Section       20  system_stm32f10x.o(.data)
    .data                                    0x20000014   Section        4  user_app.o(.data)
    pUART                                    0x20000014   Data           4  user_app.o(.data)
    .data                                    0x20000018   Section       13  drv_common.o(.data)
    .data                                    0x20000028   Section        4  board.o(.data)
    tickets                                  0x20000028   Data           4  board.o(.data)
    .data                                    0x2000002c   Section       16  cpuport.o(.data)
    rt_exception_hook                        0x20000038   Data           4  cpuport.o(.data)
    .data                                    0x2000003c   Section        4  clock.o(.data)
    rt_tick                                  0x2000003c   Data           4  clock.o(.data)
    .data                                    0x20000040   Section        1  irq.o(.data)
    .data                                    0x20000044   Section       24  mem.o(.data)
    heap_ptr                                 0x20000044   Data           4  mem.o(.data)
    heap_end                                 0x20000048   Data           4  mem.o(.data)
    lfree                                    0x2000004c   Data           4  mem.o(.data)
    mem_size_aligned                         0x20000050   Data           4  mem.o(.data)
    used_mem                                 0x20000054   Data           4  mem.o(.data)
    max_mem                                  0x20000058   Data           4  mem.o(.data)
    .data                                    0x2000005c   Section       96  object.o(.data)
    rt_object_container                      0x2000005c   Data          96  object.o(.data)
    .data                                    0x200000bc   Section       24  scheduler.o(.data)
    rt_scheduler_lock_nest                   0x200000bc   Data           2  scheduler.o(.data)
    .data                                    0x200000d4   Section       12  timer.o(.data)
    rt_timer_list                            0x200000d4   Data           8  timer.o(.data)
    random_nr                                0x200000dc   Data           4  timer.o(.data)
    .data                                    0x200000e0   Section        4  aes.o(.data)
    aes_init_done                            0x200000e0   Data           4  aes.o(.data)
    .data                                    0x200000e4   Section       20  nwk_node.o(.data)
    ptr                                      0x200000e4   Data           1  nwk_node.o(.data)
    pMakeBuff                                0x200000e8   Data           4  nwk_node.o(.data)
    make_len                                 0x200000ec   Data           1  nwk_node.o(.data)
    wait_time                                0x200000f0   Data           4  nwk_node.o(.data)
    last_wake_time                           0x200000f4   Data           4  nwk_node.o(.data)
    .data                                    0x200000f8   Section        4  nwk_bsp.o(.data)
    srand_num                                0x200000f8   Data           4  nwk_bsp.o(.data)
    .data                                    0x200000fc   Section        4  nwk_slave.o(.data)
    .data                                    0x20000100   Section       20  stm32f10x_rcc.o(.data)
    APBAHBPrescTable                         0x20000100   Data          16  stm32f10x_rcc.o(.data)
    ADCPrescTable                            0x20000110   Data           4  stm32f10x_rcc.o(.data)
    .data                                    0x20000114   Section        4  rand.o(.data)
    _rand_state                              0x20000114   Data           4  rand.o(.data)
    .data                                    0x20000118   Section        4  stdout.o(.data)
    .bss                                     0x2000011c   Section       16  app_sx1278.o(.bss)
    .bss                                     0x2000012c   Section      828  drv_uart.o(.bss)
    .bss                                     0x20000468   Section     2048  board.o(.bss)
    rt_heap                                  0x20000468   Data        2048  board.o(.bss)
    .bss                                     0x20000c68   Section      280  drv_encrypt.o(.bss)
    aes_ctx                                  0x20000c68   Data         280  drv_encrypt.o(.bss)
    .bss                                     0x20000d80   Section      376  idle.o(.bss)
    idle                                     0x20000d80   Data         120  idle.o(.bss)
    rt_thread_stack                          0x20000df8   Data         256  idle.o(.bss)
    .bss                                     0x20000ef8   Section       32  mem.o(.bss)
    heap_sem                                 0x20000ef8   Data          32  mem.o(.bss)
    .bss                                     0x20000f18   Section      256  scheduler.o(.bss)
    .bss                                     0x20001018   Section    10792  aes.o(.bss)
    FSb                                      0x20001018   Data         256  aes.o(.bss)
    FT0                                      0x20001118   Data        1024  aes.o(.bss)
    FT1                                      0x20001518   Data        1024  aes.o(.bss)
    FT2                                      0x20001918   Data        1024  aes.o(.bss)
    FT3                                      0x20001d18   Data        1024  aes.o(.bss)
    RSb                                      0x20002118   Data         256  aes.o(.bss)
    RT0                                      0x20002218   Data        1024  aes.o(.bss)
    RT1                                      0x20002618   Data        1024  aes.o(.bss)
    RT2                                      0x20002a18   Data        1024  aes.o(.bss)
    RT3                                      0x20002e18   Data        1024  aes.o(.bss)
    RCON                                     0x20003218   Data          40  aes.o(.bss)
    pow                                      0x20003240   Data        1024  aes.o(.bss)
    log                                      0x20003640   Data        1024  aes.o(.bss)
    .bss                                     0x20003a40   Section      780  nwk_node.o(.bss)
    .bss                                     0x20003d4c   Section     1112  nwk_slave.o(.bss)
    make_buff                                0x20004078   Data         300  nwk_slave.o(.bss)
    STACK                                    0x200041a8   Section      512  startup_stm32f10x_md.o(STACK)

    Global Symbols

    Symbol Name                              Value     Ov Type        Size  Object(Section)

    BuildAttributes$$THM_ISAv4$P$D$K$B$S$PE$A:L22UL41UL21$X:L11$S22US41US21$IEEE1$IW$USESV6$~STKCKD$USESV7$~SHL$OTIME$ROPI$EBA8$MICROLIB$REQ8$PRES8$EABIv2 0x00000000   Number         0  anon$$obj.o ABSOLUTE
    __ARM_use_no_argv                        0x00000000   Number         0  main.o ABSOLUTE
    _printf_a                                0x00000000   Number         0  stubs.o ABSOLUTE
    _printf_c                                0x00000000   Number         0  stubs.o ABSOLUTE
    _printf_charcount                        0x00000000   Number         0  stubs.o ABSOLUTE
    _printf_d                                0x00000000   Number         0  stubs.o ABSOLUTE
    _printf_e                                0x00000000   Number         0  stubs.o ABSOLUTE
    _printf_f                                0x00000000   Number         0  stubs.o ABSOLUTE
    _printf_flags                            0x00000000   Number         0  stubs.o ABSOLUTE
    _printf_fp_dec                           0x00000000   Number         0  stubs.o ABSOLUTE
    _printf_fp_hex                           0x00000000   Number         0  stubs.o ABSOLUTE
    _printf_g                                0x00000000   Number         0  stubs.o ABSOLUTE
    _printf_i                                0x00000000   Number         0  stubs.o ABSOLUTE
    _printf_int_dec                          0x00000000   Number         0  stubs.o ABSOLUTE
    _printf_l                                0x00000000   Number         0  stubs.o ABSOLUTE
    _printf_lc                               0x00000000   Number         0  stubs.o ABSOLUTE
    _printf_ll                               0x00000000   Number         0  stubs.o ABSOLUTE
    _printf_lld                              0x00000000   Number         0  stubs.o ABSOLUTE
    _printf_lli                              0x00000000   Number         0  stubs.o ABSOLUTE
    _printf_llo                              0x00000000   Number         0  stubs.o ABSOLUTE
    _printf_llu                              0x00000000   Number         0  stubs.o ABSOLUTE
    _printf_llx                              0x00000000   Number         0  stubs.o ABSOLUTE
    _printf_longlong_dec                     0x00000000   Number         0  stubs.o ABSOLUTE
    _printf_longlong_hex                     0x00000000   Number         0  stubs.o ABSOLUTE
    _printf_longlong_oct                     0x00000000   Number         0  stubs.o ABSOLUTE
    _printf_ls                               0x00000000   Number         0  stubs.o ABSOLUTE
    _printf_mbtowc                           0x00000000   Number         0  stubs.o ABSOLUTE
    _printf_n                                0x00000000   Number         0  stubs.o ABSOLUTE
    _printf_o                                0x00000000   Number         0  stubs.o ABSOLUTE
    _printf_p                                0x00000000   Number         0  stubs.o ABSOLUTE
    _printf_percent                          0x00000000   Number         0  stubs.o ABSOLUTE
    _printf_pre_padding                      0x00000000   Number         0  stubs.o ABSOLUTE
    _printf_return_value                     0x00000000   Number         0  stubs.o ABSOLUTE
    _printf_s                                0x00000000   Number         0  stubs.o ABSOLUTE
    _printf_sizespec                         0x00000000   Number         0  stubs.o ABSOLUTE
    _printf_str                              0x00000000   Number         0  stubs.o ABSOLUTE
    _printf_truncate_signed                  0x00000000   Number         0  stubs.o ABSOLUTE
    _printf_truncate_unsigned                0x00000000   Number         0  stubs.o ABSOLUTE
    _printf_u                                0x00000000   Number         0  stubs.o ABSOLUTE
    _printf_wc                               0x00000000   Number         0  stubs.o ABSOLUTE
    _printf_wctomb                           0x00000000   Number         0  stubs.o ABSOLUTE
    _printf_widthprec                        0x00000000   Number         0  stubs.o ABSOLUTE
    _printf_x                                0x00000000   Number         0  stubs.o ABSOLUTE
    __cpp_initialize__aeabi_                  - Undefined Weak Reference
    __cxa_finalize                            - Undefined Weak Reference
    __decompress                              - Undefined Weak Reference
    _clock_init                               - Undefined Weak Reference
    _microlib_exit                            - Undefined Weak Reference
    __Vectors_Size                           0x000000ec   Number         0  startup_stm32f10x_md.o ABSOLUTE
    __Vectors                                0x08000000   Data           4  startup_stm32f10x_md.o(RESET)
    __Vectors_End                            0x080000ec   Data           0  startup_stm32f10x_md.o(RESET)
    __main                                   0x080000ed   Thumb Code     0  entry.o(.ARM.Collect$$$$00000000)
    _main_stk                                0x080000ed   Thumb Code     0  entry2.o(.ARM.Collect$$$$00000001)
    _main_scatterload                        0x080000f1   Thumb Code     0  entry5.o(.ARM.Collect$$$$00000004)
    __main_after_scatterload                 0x080000f5   Thumb Code     0  entry5.o(.ARM.Collect$$$$00000004)
    _main_clock                              0x080000f5   Thumb Code     0  entry7b.o(.ARM.Collect$$$$00000008)
    _main_cpp_init                           0x080000f5   Thumb Code     0  entry8b.o(.ARM.Collect$$$$0000000A)
    _main_init                               0x080000f5   Thumb Code     0  entry9a.o(.ARM.Collect$$$$0000000B)
    __rt_final_cpp                           0x080000fd   Thumb Code     0  entry10a.o(.ARM.Collect$$$$0000000D)
    __rt_final_exit                          0x080000fd   Thumb Code     0  entry11a.o(.ARM.Collect$$$$0000000F)
    Reset_Handler                            0x08000101   Thumb Code     8  startup_stm32f10x_md.o(.text)
    ADC1_2_IRQHandler                        0x0800011b   Thumb Code     0  startup_stm32f10x_md.o(.text)
    CAN1_RX1_IRQHandler                      0x0800011b   Thumb Code     0  startup_stm32f10x_md.o(.text)
    CAN1_SCE_IRQHandler                      0x0800011b   Thumb Code     0  startup_stm32f10x_md.o(.text)
    DMA1_Channel1_IRQHandler                 0x0800011b   Thumb Code     0  startup_stm32f10x_md.o(.text)
    DMA1_Channel2_IRQHandler                 0x0800011b   Thumb Code     0  startup_stm32f10x_md.o(.text)
    DMA1_Channel3_IRQHandler                 0x0800011b   Thumb Code     0  startup_stm32f10x_md.o(.text)
    DMA1_Channel4_IRQHandler                 0x0800011b   Thumb Code     0  startup_stm32f10x_md.o(.text)
    DMA1_Channel5_IRQHandler                 0x0800011b   Thumb Code     0  startup_stm32f10x_md.o(.text)
    DMA1_Channel6_IRQHandler                 0x0800011b   Thumb Code     0  startup_stm32f10x_md.o(.text)
    DMA1_Channel7_IRQHandler                 0x0800011b   Thumb Code     0  startup_stm32f10x_md.o(.text)
    EXTI0_IRQHandler                         0x0800011b   Thumb Code     0  startup_stm32f10x_md.o(.text)
    EXTI15_10_IRQHandler                     0x0800011b   Thumb Code     0  startup_stm32f10x_md.o(.text)
    EXTI1_IRQHandler                         0x0800011b   Thumb Code     0  startup_stm32f10x_md.o(.text)
    EXTI2_IRQHandler                         0x0800011b   Thumb Code     0  startup_stm32f10x_md.o(.text)
    EXTI3_IRQHandler                         0x0800011b   Thumb Code     0  startup_stm32f10x_md.o(.text)
    EXTI4_IRQHandler                         0x0800011b   Thumb Code     0  startup_stm32f10x_md.o(.text)
    EXTI9_5_IRQHandler                       0x0800011b   Thumb Code     0  startup_stm32f10x_md.o(.text)
    FLASH_IRQHandler                         0x0800011b   Thumb Code     0  startup_stm32f10x_md.o(.text)
    I2C1_ER_IRQHandler                       0x0800011b   Thumb Code     0  startup_stm32f10x_md.o(.text)
    I2C1_EV_IRQHandler                       0x0800011b   Thumb Code     0  startup_stm32f10x_md.o(.text)
    I2C2_ER_IRQHandler                       0x0800011b   Thumb Code     0  startup_stm32f10x_md.o(.text)
    I2C2_EV_IRQHandler                       0x0800011b   Thumb Code     0  startup_stm32f10x_md.o(.text)
    PVD_IRQHandler                           0x0800011b   Thumb Code     0  startup_stm32f10x_md.o(.text)
    RCC_IRQHandler                           0x0800011b   Thumb Code     0  startup_stm32f10x_md.o(.text)
    RTCAlarm_IRQHandler                      0x0800011b   Thumb Code     0  startup_stm32f10x_md.o(.text)
    SPI1_IRQHandler                          0x0800011b   Thumb Code     0  startup_stm32f10x_md.o(.text)
    SPI2_IRQHandler                          0x0800011b   Thumb Code     0  startup_stm32f10x_md.o(.text)
    TAMPER_IRQHandler                        0x0800011b   Thumb Code     0  startup_stm32f10x_md.o(.text)
    TIM1_BRK_IRQHandler                      0x0800011b   Thumb Code     0  startup_stm32f10x_md.o(.text)
    TIM1_CC_IRQHandler                       0x0800011b   Thumb Code     0  startup_stm32f10x_md.o(.text)
    TIM1_TRG_COM_IRQHandler                  0x0800011b   Thumb Code     0  startup_stm32f10x_md.o(.text)
    TIM1_UP_IRQHandler                       0x0800011b   Thumb Code     0  startup_stm32f10x_md.o(.text)
    TIM2_IRQHandler                          0x0800011b   Thumb Code     0  startup_stm32f10x_md.o(.text)
    TIM3_IRQHandler                          0x0800011b   Thumb Code     0  startup_stm32f10x_md.o(.text)
    TIM4_IRQHandler                          0x0800011b   Thumb Code     0  startup_stm32f10x_md.o(.text)
    USBWakeUp_IRQHandler                     0x0800011b   Thumb Code     0  startup_stm32f10x_md.o(.text)
    USB_HP_CAN1_TX_IRQHandler                0x0800011b   Thumb Code     0  startup_stm32f10x_md.o(.text)
    USB_LP_CAN1_RX0_IRQHandler               0x0800011b   Thumb Code     0  startup_stm32f10x_md.o(.text)
    WWDG_IRQHandler                          0x0800011b   Thumb Code     0  startup_stm32f10x_md.o(.text)
    rt_hw_interrupt_disable                  0x08000125   Thumb Code     8  context_rvds.o(.text)
    rt_hw_interrupt_enable                   0x0800012d   Thumb Code     6  context_rvds.o(.text)
    rt_hw_context_switch                     0x08000133   Thumb Code    32  context_rvds.o(.text)
    rt_hw_context_switch_interrupt           0x08000133   Thumb Code     0  context_rvds.o(.text)
    PendSV_Handler                           0x08000153   Thumb Code    60  context_rvds.o(.text)
    rt_hw_context_switch_to                  0x0800018f   Thumb Code    58  context_rvds.o(.text)
    rt_hw_interrupt_thread_switch            0x080001c9   Thumb Code     2  context_rvds.o(.text)
    HardFault_Handler                        0x080001cb   Thumb Code    48  context_rvds.o(.text)
    rand                                     0x08000215   Thumb Code    20  rand.o(.text)
    srand                                    0x08000229   Thumb Code     6  rand.o(.text)
    __aeabi_memcpy                           0x08000239   Thumb Code    36  memcpya.o(.text)
    __aeabi_memcpy4                          0x08000239   Thumb Code     0  memcpya.o(.text)
    __aeabi_memcpy8                          0x08000239   Thumb Code     0  memcpya.o(.text)
    __aeabi_memset                           0x0800025d   Thumb Code    14  memseta.o(.text)
    __aeabi_memset4                          0x0800025d   Thumb Code     0  memseta.o(.text)
    __aeabi_memset8                          0x0800025d   Thumb Code     0  memseta.o(.text)
    __aeabi_memclr                           0x0800026b   Thumb Code     4  memseta.o(.text)
    __aeabi_memclr4                          0x0800026b   Thumb Code     0  memseta.o(.text)
    __aeabi_memclr8                          0x0800026b   Thumb Code     0  memseta.o(.text)
    _memset$wrapper                          0x0800026f   Thumb Code    18  memseta.o(.text)
    strstr                                   0x08000281   Thumb Code    36  strstr.o(.text)
    strlen                                   0x080002a5   Thumb Code    14  strlen.o(.text)
    memcmp                                   0x080002b3   Thumb Code    26  memcmp.o(.text)
    strcpy                                   0x080002cd   Thumb Code    18  strcpy.o(.text)
    __aeabi_fmul                             0x080002df   Thumb Code   100  fmul.o(.text)
    __aeabi_fdiv                             0x08000343   Thumb Code   124  fdiv.o(.text)
    __aeabi_dadd                             0x080003bf   Thumb Code   322  dadd.o(.text)
    __aeabi_dsub                             0x08000501   Thumb Code     6  dadd.o(.text)
    __aeabi_drsub                            0x08000507   Thumb Code     6  dadd.o(.text)
    __aeabi_dmul                             0x0800050d   Thumb Code   228  dmul.o(.text)
    __aeabi_ddiv                             0x080005f1   Thumb Code   222  ddiv.o(.text)
    __aeabi_ui2f                             0x080006cf   Thumb Code    10  ffltui.o(.text)
    __aeabi_i2d                              0x080006d9   Thumb Code    34  dflti.o(.text)
    __aeabi_ui2d                             0x080006fb   Thumb Code    26  dfltui.o(.text)
    __aeabi_f2uiz                            0x08000715   Thumb Code    40  ffixui.o(.text)
    __aeabi_d2uiz                            0x0800073d   Thumb Code    50  dfixui.o(.text)
    __aeabi_uldivmod                         0x0800076f   Thumb Code    98  uldiv.o(.text)
    __aeabi_llsl                             0x080007d1   Thumb Code    30  llshl.o(.text)
    _ll_shift_l                              0x080007d1   Thumb Code     0  llshl.o(.text)
    __aeabi_llsr                             0x080007ef   Thumb Code    32  llushr.o(.text)
    _ll_ushift_r                             0x080007ef   Thumb Code     0  llushr.o(.text)
    __aeabi_lasr                             0x0800080f   Thumb Code    36  llsshr.o(.text)
    _ll_sshift_r                             0x0800080f   Thumb Code     0  llsshr.o(.text)
    __I$use$fp                               0x08000833   Thumb Code     0  iusefp.o(.text)
    _float_round                             0x08000833   Thumb Code    18  fepilogue.o(.text)
    _float_epilogue                          0x08000845   Thumb Code    92  fepilogue.o(.text)
    _double_round                            0x080008a1   Thumb Code    30  depilogue.o(.text)
    _double_epilogue                         0x080008bf   Thumb Code   156  depilogue.o(.text)
    __scatterload                            0x0800095d   Thumb Code    28  init.o(.text)
    __scatterload_rt2                        0x0800095d   Thumb Code     0  init.o(.text)
    main                                     0x08000981   Thumb Code    14  components.o(i.$Sub$$main)
    APP_Init                                 0x08000991   Thumb Code    68  user_app.o(i.APP_Init)
    BKP_DeInit                               0x080009ed   Thumb Code    16  stm32f10x_bkp.o(i.BKP_DeInit)
    BKP_RTCOutputConfig                      0x080009fd   Thumb Code    22  stm32f10x_bkp.o(i.BKP_RTCOutputConfig)
    BKP_ReadBackupRegister                   0x08000a19   Thumb Code    24  stm32f10x_bkp.o(i.BKP_ReadBackupRegister)
    BKP_TamperPinCmd                         0x08000a35   Thumb Code     6  stm32f10x_bkp.o(i.BKP_TamperPinCmd)
    BKP_WriteBackupRegister                  0x08000a41   Thumb Code    22  stm32f10x_bkp.o(i.BKP_WriteBackupRegister)
    BusFault_Handler                         0x08000a5d   Thumb Code     4  stm32f10x_it.o(i.BusFault_Handler)
    DebugMon_Handler                         0x08000a61   Thumb Code     2  stm32f10x_it.o(i.DebugMon_Handler)
    DecryptTEA                               0x08000a65   Thumb Code   102  drv_encrypt.o(i.DecryptTEA)
    EncryptTEA                               0x08000ad1   Thumb Code    96  drv_encrypt.o(i.EncryptTEA)
    FLASH_PrefetchBufferCmd                  0x08000b35   Thumb Code    22  stm32f10x_flash.o(i.FLASH_PrefetchBufferCmd)
    FLASH_SetLatency                         0x08000b51   Thumb Code    18  stm32f10x_flash.o(i.FLASH_SetLatency)
    GPIO_Init                                0x08000b69   Thumb Code   274  stm32f10x_gpio.o(i.GPIO_Init)
    GPIO_PinRemapConfig                      0x08000c7d   Thumb Code   138  stm32f10x_gpio.o(i.GPIO_PinRemapConfig)
    GPIO_ResetBits                           0x08000d0d   Thumb Code     4  stm32f10x_gpio.o(i.GPIO_ResetBits)
    GPIO_SetBits                             0x08000d11   Thumb Code     4  stm32f10x_gpio.o(i.GPIO_SetBits)
    HSI_Config                               0x08000d15   Thumb Code   152  system_stm32f10x.o(i.HSI_Config)
    MemManage_Handler                        0x08000db1   Thumb Code     4  stm32f10x_it.o(i.MemManage_Handler)
    NMI_Handler                              0x08000db5   Thumb Code     2  stm32f10x_it.o(i.NMI_Handler)
    NVIC_Init                                0x08000db9   Thumb Code   102  misc.o(i.NVIC_Init)
    PWR_BackupAccessCmd                      0x08000e2d   Thumb Code     6  stm32f10x_pwr.o(i.PWR_BackupAccessCmd)
    RCC_APB1PeriphClockCmd                   0x08000e39   Thumb Code    26  stm32f10x_rcc.o(i.RCC_APB1PeriphClockCmd)
    RCC_APB2PeriphClockCmd                   0x08000e59   Thumb Code    26  stm32f10x_rcc.o(i.RCC_APB2PeriphClockCmd)
    RCC_BackupResetCmd                       0x08000e79   Thumb Code     6  stm32f10x_rcc.o(i.RCC_BackupResetCmd)
    RCC_DeInit                               0x08000e85   Thumb Code    64  stm32f10x_rcc.o(i.RCC_DeInit)
    RCC_GetClocksFreq                        0x08000ed1   Thumb Code   192  stm32f10x_rcc.o(i.RCC_GetClocksFreq)
    RCC_GetFlagStatus                        0x08000fa5   Thumb Code    56  stm32f10x_rcc.o(i.RCC_GetFlagStatus)
    RCC_GetSYSCLKSource                      0x08000fe1   Thumb Code    10  stm32f10x_rcc.o(i.RCC_GetSYSCLKSource)
    RCC_HCLKConfig                           0x08000ff1   Thumb Code    18  stm32f10x_rcc.o(i.RCC_HCLKConfig)
    RCC_HSICmd                               0x08001009   Thumb Code     6  stm32f10x_rcc.o(i.RCC_HSICmd)
    RCC_LSEConfig                            0x08001015   Thumb Code    44  stm32f10x_rcc.o(i.RCC_LSEConfig)
    RCC_LSICmd                               0x08001049   Thumb Code     6  stm32f10x_rcc.o(i.RCC_LSICmd)
    RCC_PCLK1Config                          0x08001055   Thumb Code    18  stm32f10x_rcc.o(i.RCC_PCLK1Config)
    RCC_PCLK2Config                          0x0800106d   Thumb Code    20  stm32f10x_rcc.o(i.RCC_PCLK2Config)
    RCC_PLLCmd                               0x08001085   Thumb Code     6  stm32f10x_rcc.o(i.RCC_PLLCmd)
    RCC_PLLConfig                            0x08001091   Thumb Code    24  stm32f10x_rcc.o(i.RCC_PLLConfig)
    RCC_RTCCLKCmd                            0x080010ad   Thumb Code     6  stm32f10x_rcc.o(i.RCC_RTCCLKCmd)
    RCC_RTCCLKConfig                         0x080010b9   Thumb Code    12  stm32f10x_rcc.o(i.RCC_RTCCLKConfig)
    RCC_SYSCLKConfig                         0x080010c9   Thumb Code    18  stm32f10x_rcc.o(i.RCC_SYSCLKConfig)
    RTC_ClearITPendingBit                    0x080010e1   Thumb Code    12  stm32f10x_rtc.o(i.RTC_ClearITPendingBit)
    RTC_EnterConfigMode                      0x080010f1   Thumb Code    14  stm32f10x_rtc.o(i.RTC_EnterConfigMode)
    RTC_ExitConfigMode                       0x08001105   Thumb Code    16  stm32f10x_rtc.o(i.RTC_ExitConfigMode)
    RTC_GetITStatus                          0x08001119   Thumb Code    32  stm32f10x_rtc.o(i.RTC_GetITStatus)
    RTC_IRQHandler                           0x0800113d   Thumb Code    18  stm32f10x_it.o(i.RTC_IRQHandler)
    RTC_SetCounter                           0x08001151   Thumb Code    24  stm32f10x_rtc.o(i.RTC_SetCounter)
    RTC_WaitForLastTask                      0x0800116d   Thumb Code    14  stm32f10x_rtc.o(i.RTC_WaitForLastTask)
    RTC_WaitForSynchro                       0x08001181   Thumb Code    28  stm32f10x_rtc.o(i.RTC_WaitForSynchro)
    SPI_Cmd                                  0x080011a1   Thumb Code    24  stm32f10x_spi.o(i.SPI_Cmd)
    SPI_I2S_GetFlagStatus                    0x080011b9   Thumb Code    18  stm32f10x_spi.o(i.SPI_I2S_GetFlagStatus)
    SPI_I2S_ReceiveData                      0x080011cb   Thumb Code     6  stm32f10x_spi.o(i.SPI_I2S_ReceiveData)
    SPI_I2S_SendData                         0x080011d1   Thumb Code     4  stm32f10x_spi.o(i.SPI_I2S_SendData)
    SPI_Init                                 0x080011d5   Thumb Code    60  stm32f10x_spi.o(i.SPI_Init)
    SVC_Handler                              0x08001211   Thumb Code     2  stm32f10x_it.o(i.SVC_Handler)
    SysTick_Handler                          0x08001215   Thumb Code    52  board.o(i.SysTick_Handler)
    SystemCoreClockUpdate                    0x08001251   Thumb Code   142  system_stm32f10x.o(i.SystemCoreClockUpdate)
    SystemInit                               0x080012f5   Thumb Code    16  system_stm32f10x.o(i.SystemInit)
    UART1_Init                               0x08001309   Thumb Code   182  drv_uart.o(i.UART1_Init)
    UART2_Init                               0x080013d1   Thumb Code   178  drv_uart.o(i.UART2_Init)
    UART3_Init                               0x08001495   Thumb Code   182  drv_uart.o(i.UART3_Init)
    UART_Clear                               0x0800155d   Thumb Code    24  drv_uart.o(i.UART_Clear)
    UART_Init                                0x08001575   Thumb Code    22  drv_uart.o(i.UART_Init)
    USART1_IRQHandler                        0x0800159d   Thumb Code   100  drv_uart.o(i.USART1_IRQHandler)
    USART2_IRQHandler                        0x08001609   Thumb Code   110  drv_uart.o(i.USART2_IRQHandler)
    USART3_IRQHandler                        0x08001681   Thumb Code   100  drv_uart.o(i.USART3_IRQHandler)
    USART_ClearFlag                          0x080016ed   Thumb Code    18  stm32f10x_usart.o(i.USART_ClearFlag)
    USART_ClearITPendingBit                  0x080016ff   Thumb Code    30  stm32f10x_usart.o(i.USART_ClearITPendingBit)
    USART_Cmd                                0x0800171d   Thumb Code    24  stm32f10x_usart.o(i.USART_Cmd)
    USART_GetFlagStatus                      0x08001735   Thumb Code    26  stm32f10x_usart.o(i.USART_GetFlagStatus)
    USART_GetITStatus                        0x0800174f   Thumb Code    84  stm32f10x_usart.o(i.USART_GetITStatus)
    USART_ITConfig                           0x080017a3   Thumb Code    74  stm32f10x_usart.o(i.USART_ITConfig)
    USART_Init                               0x080017ed   Thumb Code   210  stm32f10x_usart.o(i.USART_Init)
    USART_ReceiveData                        0x080018c5   Thumb Code    10  stm32f10x_usart.o(i.USART_ReceiveData)
    USART_SendData                           0x080018cf   Thumb Code     8  stm32f10x_usart.o(i.USART_SendData)
    UsageFault_Handler                       0x080018d7   Thumb Code     4  stm32f10x_it.o(i.UsageFault_Handler)
    WWDG_Enable                              0x080018dd   Thumb Code    10  stm32f10x_wwdg.o(i.WWDG_Enable)
    WWDG_SetPrescaler                        0x080018ed   Thumb Code    18  stm32f10x_wwdg.o(i.WWDG_SetPrescaler)
    WWDG_SetWindowValue                      0x08001905   Thumb Code    34  stm32f10x_wwdg.o(i.WWDG_SetWindowValue)
    __0printf$8                              0x0800195d   Thumb Code    22  printf8.o(i.__0printf$8)
    __1printf$8                              0x0800195d   Thumb Code     0  printf8.o(i.__0printf$8)
    __2printf                                0x0800195d   Thumb Code     0  printf8.o(i.__0printf$8)
    __rt_ffs                                 0x0800197d   Thumb Code    70  kservice.o(i.__rt_ffs)
    __scatterload_copy                       0x080019c9   Thumb Code    14  handlers.o(i.__scatterload_copy)
    __scatterload_null                       0x080019d7   Thumb Code     2  handlers.o(i.__scatterload_null)
    __scatterload_zeroinit                   0x080019d9   Thumb Code    14  handlers.o(i.__scatterload_zeroinit)
    aes_decrypt_buff                         0x08001f55   Thumb Code   196  drv_encrypt.o(i.aes_decrypt_buff)
    aes_encrypt_buff                         0x08002019   Thumb Code   250  drv_encrypt.o(i.aes_encrypt_buff)
    app_sx1278_init                          0x080024d5   Thumb Code    18  app_sx1278.o(i.app_sx1278_init)
    app_sx1278_thread_entry                  0x0800254d   Thumb Code    38  app_sx1278.o(i.app_sx1278_thread_entry)
    app_uart_thread_entry                    0x0800257d   Thumb Code   108  user_app.o(i.app_uart_thread_entry)
    bsp_sx1278_set_param                     0x0800262d   Thumb Code    34  app_sx1278.o(i.bsp_sx1278_set_param)
    delay_ms                                 0x08002655   Thumb Code    26  drv_common.o(i.delay_ms)
    delay_os                                 0x08002675   Thumb Code    24  drv_common.o(i.delay_os)
    drv_common_init                          0x0800268d   Thumb Code    88  drv_common.o(i.drv_common_init)
    drv_crc16                                0x08002725   Thumb Code    48  drv_common.o(i.drv_crc16)
    drv_get_sec_counter                      0x0800275d   Thumb Code     6  drv_common.o(i.drv_get_sec_counter)
    drv_rtc_init                             0x08002769   Thumb Code   188  drv_common.o(i.drv_rtc_init)
    drv_set_rtc_counter                      0x0800285d   Thumb Code    12  drv_common.o(i.drv_set_rtc_counter)
    drv_sx1278_cad_check                     0x08002869   Thumb Code    84  drv_sx1278.o(i.drv_sx1278_cad_check)
    drv_sx1278_cad_init                      0x080028e9   Thumb Code    62  drv_sx1278.o(i.drv_sx1278_cad_init)
    drv_sx1278_calcu_air_time                0x08002929   Thumb Code   268  drv_sx1278.o(i.drv_sx1278_calcu_air_time)
    drv_sx1278_get_rf_freq                   0x08002a61   Thumb Code    62  drv_sx1278.o(i.drv_sx1278_get_rf_freq)
    drv_sx1278_get_version                   0x08002a9f   Thumb Code    14  drv_sx1278.o(i.drv_sx1278_get_version)
    drv_sx1278_init                          0x08002aad   Thumb Code    40  drv_sx1278.o(i.drv_sx1278_init)
    drv_sx1278_read_rssi                     0x08002af1   Thumb Code    88  drv_sx1278.o(i.drv_sx1278_read_rssi)
    drv_sx1278_recv_check                    0x08002b4d   Thumb Code   102  drv_sx1278.o(i.drv_sx1278_recv_check)
    drv_sx1278_recv_init                     0x08002bb3   Thumb Code    82  drv_sx1278.o(i.drv_sx1278_recv_init)
    drv_sx1278_send                          0x08002c05   Thumb Code   126  drv_sx1278.o(i.drv_sx1278_send)
    drv_sx1278_send_check                    0x08002c95   Thumb Code    38  drv_sx1278.o(i.drv_sx1278_send_check)
    drv_sx1278_set_bw                        0x08002cbb   Thumb Code    32  drv_sx1278.o(i.drv_sx1278_set_bw)
    drv_sx1278_set_default_param             0x08002cdd   Thumb Code   140  drv_sx1278.o(i.drv_sx1278_set_default_param)
    drv_sx1278_set_error_coding              0x08002d6d   Thumb Code    36  drv_sx1278.o(i.drv_sx1278_set_error_coding)
    drv_sx1278_set_implicit_header_on        0x08002d91   Thumb Code    34  drv_sx1278.o(i.drv_sx1278_set_implicit_header_on)
    drv_sx1278_set_lowdatarateoptimize       0x08002db3   Thumb Code    34  drv_sx1278.o(i.drv_sx1278_set_lowdatarateoptimize)
    drv_sx1278_set_nb_trig_peaks             0x08002dd5   Thumb Code    34  drv_sx1278.o(i.drv_sx1278_set_nb_trig_peaks)
    drv_sx1278_set_on                        0x08002df7   Thumb Code    68  drv_sx1278.o(i.drv_sx1278_set_on)
    drv_sx1278_set_op_mode                   0x08002e3b   Thumb Code    34  drv_sx1278.o(i.drv_sx1278_set_op_mode)
    drv_sx1278_set_pa20dBm                   0x08002e5d   Thumb Code    60  drv_sx1278.o(i.drv_sx1278_set_pa20dBm)
    drv_sx1278_set_pa_output                 0x08002e99   Thumb Code    34  drv_sx1278.o(i.drv_sx1278_set_pa_output)
    drv_sx1278_set_packet_crc_on             0x08002ebb   Thumb Code    34  drv_sx1278.o(i.drv_sx1278_set_packet_crc_on)
    drv_sx1278_set_payload_length            0x08002edd   Thumb Code    18  drv_sx1278.o(i.drv_sx1278_set_payload_length)
    drv_sx1278_set_rf_freq                   0x08002ef1   Thumb Code    70  drv_sx1278.o(i.drv_sx1278_set_rf_freq)
    drv_sx1278_set_rf_power                  0x08002f3d   Thumb Code   144  drv_sx1278.o(i.drv_sx1278_set_rf_power)
    drv_sx1278_set_sf                        0x08002fd5   Thumb Code    88  drv_sx1278.o(i.drv_sx1278_set_sf)
    drv_sx1278_set_symb_timeout              0x0800302d   Thumb Code    52  drv_sx1278.o(i.drv_sx1278_set_symb_timeout)
    drv_system_reset                         0x08003061   Thumb Code    44  drv_common.o(i.drv_system_reset)
    drv_wdog_feed                            0x080030a1   Thumb Code     2  drv_common.o(i.drv_wdog_feed)
    drv_wdog_init                            0x080030a3   Thumb Code     2  drv_common.o(i.drv_wdog_init)
    fputc                                    0x080030a5   Thumb Code    32  drv_uart.o(i.fputc)
    hal_sx1278_read_addr                     0x080030c9   Thumb Code    28  hal_sx1278.o(i.hal_sx1278_read_addr)
    hal_sx1278_read_buffer                   0x080030e5   Thumb Code    58  hal_sx1278.o(i.hal_sx1278_read_buffer)
    hal_sx1278_read_fifo                     0x0800311f   Thumb Code    22  hal_sx1278.o(i.hal_sx1278_read_fifo)
    hal_sx1278_rst                           0x08003135   Thumb Code    10  hal_sx1278.o(i.hal_sx1278_rst)
    hal_sx1278_spi_rw_byte                   0x0800313f   Thumb Code    18  hal_sx1278.o(i.hal_sx1278_spi_rw_byte)
    hal_sx1278_write_addr                    0x08003151   Thumb Code    20  hal_sx1278.o(i.hal_sx1278_write_addr)
    hal_sx1278_write_buffer                  0x08003165   Thumb Code    56  hal_sx1278.o(i.hal_sx1278_write_buffer)
    hal_sx1278_write_fifo                    0x0800319d   Thumb Code    22  hal_sx1278.o(i.hal_sx1278_write_fifo)
    $Super$$main                             0x080031b5   Thumb Code    56  main.o(i.main)
    main_thread_entry                        0x0800325d   Thumb Code    14  components.o(i.main_thread_entry)
    mbedtls_aes_crypt_cbc                    0x0800326b   Thumb Code   162  aes.o(i.mbedtls_aes_crypt_cbc)
    mbedtls_aes_crypt_ecb                    0x0800330d   Thumb Code    38  aes.o(i.mbedtls_aes_crypt_ecb)
    mbedtls_aes_free                         0x08003333   Thumb Code    22  aes.o(i.mbedtls_aes_free)
    mbedtls_aes_init                         0x08003349   Thumb Code    16  aes.o(i.mbedtls_aes_init)
    mbedtls_aes_setkey_dec                   0x08003359   Thumb Code   204  aes.o(i.mbedtls_aes_setkey_dec)
    mbedtls_aes_setkey_enc                   0x08003439   Thumb Code   520  aes.o(i.mbedtls_aes_setkey_enc)
    mbedtls_internal_aes_decrypt             0x0800364d   Thumb Code  1262  aes.o(i.mbedtls_internal_aes_decrypt)
    mbedtls_internal_aes_encrypt             0x08003b51   Thumb Code  1262  aes.o(i.mbedtls_internal_aes_encrypt)
    nwk_aes_decrypt                          0x0800406b   Thumb Code    36  nwk_bsp.o(i.nwk_aes_decrypt)
    nwk_aes_encrypt                          0x0800408f   Thumb Code    36  nwk_bsp.o(i.nwk_aes_encrypt)
    nwk_crc16                                0x080040b3   Thumb Code    16  nwk_bsp.o(i.nwk_crc16)
    nwk_delay_ms                             0x080040c3   Thumb Code    12  nwk_bsp.o(i.nwk_delay_ms)
    nwk_find_head                            0x080040cf   Thumb Code    72  nwk_bsp.o(i.nwk_find_head)
    nwk_get_channel                          0x08004119   Thumb Code    30  nwk_bsp.o(i.nwk_get_channel)
    nwk_get_rand                             0x0800413d   Thumb Code    38  nwk_bsp.o(i.nwk_get_rand)
    nwk_get_rtc_counter                      0x08004169   Thumb Code     8  nwk_bsp.o(i.nwk_get_rtc_counter)
    nwk_node_cad_check                       0x08004171   Thumb Code    22  nwk_node.o(i.nwk_node_cad_check)
    nwk_node_cad_init                        0x0800418d   Thumb Code    22  nwk_node.o(i.nwk_node_cad_init)
    nwk_node_calcu_air_time                  0x080041a9   Thumb Code    30  nwk_node.o(i.nwk_node_calcu_air_time)
    nwk_node_main                            0x080041c9   Thumb Code    98  nwk_node.o(i.nwk_node_main)
    nwk_node_make_send_buff                  0x08004231   Thumb Code   398  nwk_node.o(i.nwk_node_make_send_buff)
    nwk_node_recv_check                      0x080043c5   Thumb Code    48  nwk_node.o(i.nwk_node_recv_check)
    nwk_node_recv_from_check                 0x080043f9   Thumb Code    20  nwk_node.o(i.nwk_node_recv_from_check)
    nwk_node_recv_init                       0x08004411   Thumb Code    22  nwk_node.o(i.nwk_node_recv_init)
    nwk_node_recv_parse                      0x0800442d   Thumb Code   762  nwk_node.o(i.nwk_node_recv_parse)
    nwk_node_rx_process                      0x08004881   Thumb Code   398  nwk_node.o(i.nwk_node_rx_process)
    nwk_node_search_gw                       0x08004a55   Thumb Code    38  nwk_node.o(i.nwk_node_search_gw)
    nwk_node_search_process                  0x08004a81   Thumb Code   340  nwk_node.o(i.nwk_node_search_process)
    nwk_node_select_gw                       0x08004c1d   Thumb Code    32  nwk_node.o(i.nwk_node_select_gw)
    nwk_node_send_buff                       0x08004c41   Thumb Code    30  nwk_node.o(i.nwk_node_send_buff)
    nwk_node_send_check                      0x08004c65   Thumb Code    22  nwk_node.o(i.nwk_node_send_check)
    nwk_node_send_sniff                      0x08004c81   Thumb Code   126  nwk_node.o(i.nwk_node_send_sniff)
    nwk_node_set_lora_param                  0x08004d11   Thumb Code    50  nwk_node.o(i.nwk_node_set_lora_param)
    nwk_node_sleep_init                      0x08004d49   Thumb Code    24  nwk_node.o(i.nwk_node_sleep_init)
    nwk_node_tx_d2d_process                  0x08004d65   Thumb Code    12  nwk_node.o(i.nwk_node_tx_d2d_process)
    nwk_node_tx_gw_process                   0x08004d75   Thumb Code   904  nwk_node.o(i.nwk_node_tx_gw_process)
    nwk_node_work_check                      0x080051f5   Thumb Code   584  nwk_node.o(i.nwk_node_work_check)
    nwk_set_lora_dev                         0x08005481   Thumb Code     6  nwk_node.o(i.nwk_set_lora_dev)
    nwk_set_rtc_counter                      0x0800548d   Thumb Code    12  nwk_bsp.o(i.nwk_set_rtc_counter)
    nwk_slave_calcu_air_time                 0x08005499   Thumb Code    30  nwk_slave.o(i.nwk_slave_calcu_air_time)
    nwk_slave_send_buff                      0x080054b9   Thumb Code    30  nwk_slave.o(i.nwk_slave_send_buff)
    nwk_slave_set_lora_dev                   0x080054dd   Thumb Code     6  nwk_slave.o(i.nwk_slave_set_lora_dev)
    nwk_slave_set_lora_param                 0x080054e9   Thumb Code    50  nwk_slave.o(i.nwk_slave_set_lora_param)
    nwk_slave_uart_parse                     0x08005521   Thumb Code   572  nwk_slave.o(i.nwk_slave_uart_parse)
    nwk_tea_decrypt                          0x080057d1   Thumb Code    20  nwk_bsp.o(i.nwk_tea_decrypt)
    nwk_tea_encrypt                          0x080057e5   Thumb Code    20  nwk_bsp.o(i.nwk_tea_encrypt)
    printf_hex                               0x08005871   Thumb Code    48  drv_common.o(i.printf_hex)
    rt_application_init                      0x080058b1   Thumb Code    34  components.o(i.rt_application_init)
    rt_components_board_init                 0x080058e1   Thumb Code    20  components.o(i.rt_components_board_init)
    rt_components_init                       0x080058fd   Thumb Code    20  components.o(i.rt_components_init)
    rt_enter_critical                        0x08005919   Thumb Code    28  scheduler.o(i.rt_enter_critical)
    rt_exit_critical                         0x08005939   Thumb Code    54  scheduler.o(i.rt_exit_critical)
    rt_free                                  0x08005975   Thumb Code    98  mem.o(i.rt_free)
    rt_heap_begin_get                        0x080059ed   Thumb Code     4  board.o(i.rt_heap_begin_get)
    rt_heap_end_get                          0x080059f5   Thumb Code     4  board.o(i.rt_heap_end_get)
    rt_hw_board_init                         0x080059fd   Thumb Code    54  board.o(i.rt_hw_board_init)
    rt_hw_hard_fault_exception               0x08005a39   Thumb Code    32  cpuport.o(i.rt_hw_hard_fault_exception)
    rt_hw_stack_init                         0x08005a5d   Thumb Code    70  cpuport.o(i.rt_hw_stack_init)
    rt_interrupt_enter                       0x08005aa9   Thumb Code    26  irq.o(i.rt_interrupt_enter)
    rt_interrupt_leave                       0x08005ac9   Thumb Code    26  irq.o(i.rt_interrupt_leave)
    rt_malloc                                0x08005c09   Thumb Code   336  mem.o(i.rt_malloc)
    rt_memset                                0x08005d75   Thumb Code    72  kservice.o(i.rt_memset)
    rt_object_allocate                       0x08005dbd   Thumb Code    74  object.o(i.rt_object_allocate)
    rt_object_delete                         0x08005e07   Thumb Code    32  object.o(i.rt_object_delete)
    rt_object_detach                         0x08005e27   Thumb Code    26  object.o(i.rt_object_detach)
    rt_object_get_information                0x08005e41   Thumb Code    36  object.o(i.rt_object_get_information)
    rt_object_init                           0x08005e69   Thumb Code    60  object.o(i.rt_object_init)
    rt_object_is_systemobject                0x08005ea5   Thumb Code    18  object.o(i.rt_object_is_systemobject)
    rt_schedule                              0x08005eb9   Thumb Code   118  scheduler.o(i.rt_schedule)
    rt_schedule_insert_thread                0x08005f49   Thumb Code    72  scheduler.o(i.rt_schedule_insert_thread)
    rt_schedule_remove_thread                0x08005f99   Thumb Code    76  scheduler.o(i.rt_schedule_remove_thread)
    rt_sem_init                              0x08005fed   Thumb Code    38  ipc.o(i.rt_sem_init)
    rt_sem_release                           0x08006013   Thumb Code    58  ipc.o(i.rt_sem_release)
    rt_sem_take                              0x0800604d   Thumb Code   116  ipc.o(i.rt_sem_take)
    rt_show_version                          0x080060c1   Thumb Code     2  kservice.o(i.rt_show_version)
    rt_strncpy                               0x080060c3   Thumb Code    52  kservice.o(i.rt_strncpy)
    rt_system_heap_init                      0x080060f9   Thumb Code   146  mem.o(i.rt_system_heap_init)
    rt_system_scheduler_init                 0x080061a9   Thumb Code    52  scheduler.o(i.rt_system_scheduler_init)
    rt_system_scheduler_start                0x080061f5   Thumb Code    36  scheduler.o(i.rt_system_scheduler_start)
    rt_system_timer_init                     0x08006225   Thumb Code    24  timer.o(i.rt_system_timer_init)
    rt_system_timer_thread_init              0x08006241   Thumb Code     2  timer.o(i.rt_system_timer_thread_init)
    rt_thread_create                         0x08006243   Thumb Code    80  thread.o(i.rt_thread_create)
    rt_thread_delay                          0x08006293   Thumb Code    12  thread.o(i.rt_thread_delay)
    rt_thread_exit                           0x080062a1   Thumb Code    76  thread.o(i.rt_thread_exit)
    rt_thread_idle_excute                    0x080062fd   Thumb Code   128  idle.o(i.rt_thread_idle_excute)
    rt_thread_idle_init                      0x08006381   Thumb Code    38  idle.o(i.rt_thread_idle_init)
    rt_thread_init                           0x080063bd   Thumb Code    52  thread.o(i.rt_thread_init)
    rt_thread_resume                         0x080063f1   Thumb Code    60  thread.o(i.rt_thread_resume)
    rt_thread_self                           0x0800642d   Thumb Code     6  thread.o(i.rt_thread_self)
    rt_thread_sleep                          0x08006439   Thumb Code    62  thread.o(i.rt_thread_sleep)
    rt_thread_startup                        0x0800647d   Thumb Code    44  thread.o(i.rt_thread_startup)
    rt_thread_suspend                        0x080064a9   Thumb Code    68  thread.o(i.rt_thread_suspend)
    rt_thread_timeout                        0x080064ed   Thumb Code    32  thread.o(i.rt_thread_timeout)
    rt_thread_yield                          0x0800650d   Thumb Code    92  thread.o(i.rt_thread_yield)
    rt_tick_get                              0x08006571   Thumb Code     6  clock.o(i.rt_tick_get)
    rt_tick_increase                         0x0800657d   Thumb Code    42  clock.o(i.rt_tick_increase)
    rt_timer_check                           0x080065ad   Thumb Code   118  timer.o(i.rt_timer_check)
    rt_timer_control                         0x08006629   Thumb Code    56  timer.o(i.rt_timer_control)
    rt_timer_detach                          0x08006661   Thumb Code    32  timer.o(i.rt_timer_detach)
    rt_timer_init                            0x08006681   Thumb Code    46  timer.o(i.rt_timer_init)
    rt_timer_start                           0x080066b1   Thumb Code   238  timer.o(i.rt_timer_start)
    rt_timer_stop                            0x080067a9   Thumb Code    48  timer.o(i.rt_timer_stop)
    rtthread_startup                         0x080067e9   Thumb Code    42  components.o(i.rtthread_startup)
    tea_decrypt_buff                         0x08006815   Thumb Code    78  drv_encrypt.o(i.tea_decrypt_buff)
    tea_encrypt_buff                         0x0800687d   Thumb Code    78  drv_encrypt.o(i.tea_encrypt_buff)
    __lowest_bit_bitmap                      0x08006ae4   Data         256  kservice.o(.constdata)
    __rt_init_rti_start                      0x08006c30   Data           4  components.o(.rti_fn.0)
    __rt_init_rti_board_start                0x08006c34   Data           4  components.o(.rti_fn.0.end)
    __rt_init_rti_board_end                  0x08006c38   Data           4  components.o(.rti_fn.1.end)
    __rt_init_rti_end                        0x08006c3c   Data           4  components.o(.rti_fn.6.end)
    Region$$Table$$Base                      0x08006c40   Number         0  anon$$obj.o(Region$$Table)
    Region$$Table$$Limit                     0x08006c60   Number         0  anon$$obj.o(Region$$Table)
    SystemCoreClock                          0x20000000   Data           4  system_stm32f10x.o(.data)
    AHBPrescTable                            0x20000004   Data          16  system_stm32f10x.o(.data)
    g_u32SecCounter                          0x20000018   Data           4  drv_common.o(.data)
    tickets_us                               0x2000001c   Data           4  drv_common.o(.data)
    tickets_ms                               0x20000020   Data           4  drv_common.o(.data)
    bWatchDog                                0x20000024   Data           1  drv_common.o(.data)
    rt_interrupt_from_thread                 0x2000002c   Data           4  cpuport.o(.data)
    rt_interrupt_to_thread                   0x20000030   Data           4  cpuport.o(.data)
    rt_thread_switch_interrupt_flag          0x20000034   Data           4  cpuport.o(.data)
    rt_interrupt_nest                        0x20000040   Data           1  irq.o(.data)
    rt_current_thread                        0x200000c0   Data           4  scheduler.o(.data)
    rt_current_priority                      0x200000c4   Data           1  scheduler.o(.data)
    rt_thread_ready_priority_group           0x200000c8   Data           4  scheduler.o(.data)
    rt_thread_defunct                        0x200000cc   Data           8  scheduler.o(.data)
    g_sNwkSlaveSave                          0x200000fc   Data           4  nwk_slave.o(.data)
    __stdout                                 0x20000118   Data           4  stdout.o(.data)
    g_sDrvSx1278                             0x2000011c   Data          16  app_sx1278.o(.bss)
    g_sUART1                                 0x2000012c   Data          20  drv_uart.o(.bss)
    g_sUART2                                 0x20000140   Data          20  drv_uart.o(.bss)
    g_sUART3                                 0x20000154   Data          20  drv_uart.o(.bss)
    g_u8UART1_Buff                           0x20000168   Data         256  drv_uart.o(.bss)
    g_u8UART2_Buff                           0x20000268   Data         256  drv_uart.o(.bss)
    g_u8UART3_Buff                           0x20000368   Data         256  drv_uart.o(.bss)
    rt_thread_priority_table                 0x20000f18   Data         256  scheduler.o(.bss)
    g_sNwkNodeSave                           0x20003a40   Data          36  nwk_node.o(.bss)
    g_sNwkNodeWork                           0x20003a64   Data         744  nwk_node.o(.bss)
    g_sNwkSlaveWork                          0x20003d4c   Data         812  nwk_slave.o(.bss)
    __initial_sp                             0x200043a8   Data           0  startup_stm32f10x_md.o(STACK)



==============================================================================

Memory Map of the image

  Image Entry point : 0x080000ed

  Load Region LR_IROM1 (Base: 0x08000000, Size: 0x00006d7c, Max: 0x00009000, ABSOLUTE)

    Execution Region ER_IROM1 (Base: 0x08000000, Size: 0x00006c60, Max: 0x00009000, ABSOLUTE)

    Base Addr    Size         Type   Attr      Idx    E Section Name        Object

    0x08000000   0x000000ec   Data   RO           19    RESET               startup_stm32f10x_md.o
    0x080000ec   0x00000000   Code   RO         4457  * .ARM.Collect$$$$00000000  mc_w.l(entry.o)
    0x080000ec   0x00000004   Code   RO         4788    .ARM.Collect$$$$00000001  mc_w.l(entry2.o)
    0x080000f0   0x00000004   Code   RO         4791    .ARM.Collect$$$$00000004  mc_w.l(entry5.o)
    0x080000f4   0x00000000   Code   RO         4793    .ARM.Collect$$$$00000008  mc_w.l(entry7b.o)
    0x080000f4   0x00000000   Code   RO         4795    .ARM.Collect$$$$0000000A  mc_w.l(entry8b.o)
    0x080000f4   0x00000008   Code   RO         4796    .ARM.Collect$$$$0000000B  mc_w.l(entry9a.o)
    0x080000fc   0x00000000   Code   RO         4798    .ARM.Collect$$$$0000000D  mc_w.l(entry10a.o)
    0x080000fc   0x00000000   Code   RO         4800    .ARM.Collect$$$$0000000F  mc_w.l(entry11a.o)
    0x080000fc   0x00000004   Code   RO         4789    .ARM.Collect$$$$00002712  mc_w.l(entry2.o)
    0x08000100   0x00000024   Code   RO           20    .text               startup_stm32f10x_md.o
    0x08000124   0x000000f0   Code   RO         1882    .text               context_rvds.o
    0x08000214   0x00000024   Code   RO         4460    .text               mc_w.l(rand.o)
    0x08000238   0x00000024   Code   RO         4463    .text               mc_w.l(memcpya.o)
    0x0800025c   0x00000024   Code   RO         4465    .text               mc_w.l(memseta.o)
    0x08000280   0x00000024   Code   RO         4467    .text               mc_w.l(strstr.o)
    0x080002a4   0x0000000e   Code   RO         4469    .text               mc_w.l(strlen.o)
    0x080002b2   0x0000001a   Code   RO         4471    .text               mc_w.l(memcmp.o)
    0x080002cc   0x00000012   Code   RO         4473    .text               mc_w.l(strcpy.o)
    0x080002de   0x00000064   Code   RO         4768    .text               mf_w.l(fmul.o)
    0x08000342   0x0000007c   Code   RO         4770    .text               mf_w.l(fdiv.o)
    0x080003be   0x0000014e   Code   RO         4772    .text               mf_w.l(dadd.o)
    0x0800050c   0x000000e4   Code   RO         4774    .text               mf_w.l(dmul.o)
    0x080005f0   0x000000de   Code   RO         4776    .text               mf_w.l(ddiv.o)
    0x080006ce   0x0000000a   Code   RO         4778    .text               mf_w.l(ffltui.o)
    0x080006d8   0x00000022   Code   RO         4780    .text               mf_w.l(dflti.o)
    0x080006fa   0x0000001a   Code   RO         4782    .text               mf_w.l(dfltui.o)
    0x08000714   0x00000028   Code   RO         4784    .text               mf_w.l(ffixui.o)
    0x0800073c   0x00000032   Code   RO         4786    .text               mf_w.l(dfixui.o)
    0x0800076e   0x00000062   Code   RO         4805    .text               mc_w.l(uldiv.o)
    0x080007d0   0x0000001e   Code   RO         4807    .text               mc_w.l(llshl.o)
    0x080007ee   0x00000020   Code   RO         4809    .text               mc_w.l(llushr.o)
    0x0800080e   0x00000024   Code   RO         4811    .text               mc_w.l(llsshr.o)
    0x08000832   0x00000000   Code   RO         4815    .text               mc_w.l(iusefp.o)
    0x08000832   0x0000006e   Code   RO         4816    .text               mf_w.l(fepilogue.o)
    0x080008a0   0x000000ba   Code   RO         4818    .text               mf_w.l(depilogue.o)
    0x0800095a   0x00000002   PAD
    0x0800095c   0x00000024   Code   RO         4824    .text               mc_w.l(init.o)
    0x08000980   0x0000000e   Code   RO          918    i.$Sub$$main        components.o
    0x0800098e   0x00000002   PAD
    0x08000990   0x0000005c   Code   RO          307    i.APP_Init          user_app.o
    0x080009ec   0x00000010   Code   RO         3365    i.BKP_DeInit        f103c8t6.lib(stm32f10x_bkp.o)
    0x080009fc   0x0000001c   Code   RO         3369    i.BKP_RTCOutputConfig  f103c8t6.lib(stm32f10x_bkp.o)
    0x08000a18   0x0000001c   Code   RO         3370    i.BKP_ReadBackupRegister  f103c8t6.lib(stm32f10x_bkp.o)
    0x08000a34   0x0000000c   Code   RO         3372    i.BKP_TamperPinCmd  f103c8t6.lib(stm32f10x_bkp.o)
    0x08000a40   0x0000001c   Code   RO         3374    i.BKP_WriteBackupRegister  f103c8t6.lib(stm32f10x_bkp.o)
    0x08000a5c   0x00000004   Code   RO           24    i.BusFault_Handler  stm32f10x_it.o
    0x08000a60   0x00000002   Code   RO           25    i.DebugMon_Handler  stm32f10x_it.o
    0x08000a62   0x00000002   PAD
    0x08000a64   0x0000006c   Code   RO          783    i.DecryptTEA        drv_encrypt.o
    0x08000ad0   0x00000064   Code   RO          784    i.EncryptTEA        drv_encrypt.o
    0x08000b34   0x0000001c   Code   RO         3458    i.FLASH_PrefetchBufferCmd  f103c8t6.lib(stm32f10x_flash.o)
    0x08000b50   0x00000018   Code   RO         3463    i.FLASH_SetLatency  f103c8t6.lib(stm32f10x_flash.o)
    0x08000b68   0x00000112   Code   RO         3621    i.GPIO_Init         f103c8t6.lib(stm32f10x_gpio.o)
    0x08000c7a   0x00000002   PAD
    0x08000c7c   0x00000090   Code   RO         3623    i.GPIO_PinRemapConfig  f103c8t6.lib(stm32f10x_gpio.o)
    0x08000d0c   0x00000004   Code   RO         3628    i.GPIO_ResetBits    f103c8t6.lib(stm32f10x_gpio.o)
    0x08000d10   0x00000004   Code   RO         3629    i.GPIO_SetBits      f103c8t6.lib(stm32f10x_gpio.o)
    0x08000d14   0x0000009c   Code   RO          164    i.HSI_Config        system_stm32f10x.o
    0x08000db0   0x00000004   Code   RO           26    i.MemManage_Handler  stm32f10x_it.o
    0x08000db4   0x00000002   Code   RO           27    i.NMI_Handler       stm32f10x_it.o
    0x08000db6   0x00000002   PAD
    0x08000db8   0x00000074   Code   RO         3241    i.NVIC_Init         f103c8t6.lib(misc.o)
    0x08000e2c   0x0000000c   Code   RO         3729    i.PWR_BackupAccessCmd  f103c8t6.lib(stm32f10x_pwr.o)
    0x08000e38   0x00000020   Code   RO         3791    i.RCC_APB1PeriphClockCmd  f103c8t6.lib(stm32f10x_rcc.o)
    0x08000e58   0x00000020   Code   RO         3793    i.RCC_APB2PeriphClockCmd  f103c8t6.lib(stm32f10x_rcc.o)
    0x08000e78   0x0000000c   Code   RO         3796    i.RCC_BackupResetCmd  f103c8t6.lib(stm32f10x_rcc.o)
    0x08000e84   0x0000004c   Code   RO         3800    i.RCC_DeInit        f103c8t6.lib(stm32f10x_rcc.o)
    0x08000ed0   0x000000d4   Code   RO         3801    i.RCC_GetClocksFreq  f103c8t6.lib(stm32f10x_rcc.o)
    0x08000fa4   0x0000003c   Code   RO         3802    i.RCC_GetFlagStatus  f103c8t6.lib(stm32f10x_rcc.o)
    0x08000fe0   0x00000010   Code   RO         3804    i.RCC_GetSYSCLKSource  f103c8t6.lib(stm32f10x_rcc.o)
    0x08000ff0   0x00000018   Code   RO         3805    i.RCC_HCLKConfig    f103c8t6.lib(stm32f10x_rcc.o)
    0x08001008   0x0000000c   Code   RO         3807    i.RCC_HSICmd        f103c8t6.lib(stm32f10x_rcc.o)
    0x08001014   0x00000034   Code   RO         3809    i.RCC_LSEConfig     f103c8t6.lib(stm32f10x_rcc.o)
    0x08001048   0x0000000c   Code   RO         3810    i.RCC_LSICmd        f103c8t6.lib(stm32f10x_rcc.o)
    0x08001054   0x00000018   Code   RO         3812    i.RCC_PCLK1Config   f103c8t6.lib(stm32f10x_rcc.o)
    0x0800106c   0x00000018   Code   RO         3813    i.RCC_PCLK2Config   f103c8t6.lib(stm32f10x_rcc.o)
    0x08001084   0x0000000c   Code   RO         3814    i.RCC_PLLCmd        f103c8t6.lib(stm32f10x_rcc.o)
    0x08001090   0x0000001c   Code   RO         3815    i.RCC_PLLConfig     f103c8t6.lib(stm32f10x_rcc.o)
    0x080010ac   0x0000000c   Code   RO         3816    i.RCC_RTCCLKCmd     f103c8t6.lib(stm32f10x_rcc.o)
    0x080010b8   0x00000010   Code   RO         3817    i.RCC_RTCCLKConfig  f103c8t6.lib(stm32f10x_rcc.o)
    0x080010c8   0x00000018   Code   RO         3818    i.RCC_SYSCLKConfig  f103c8t6.lib(stm32f10x_rcc.o)
    0x080010e0   0x00000010   Code   RO         3990    i.RTC_ClearITPendingBit  f103c8t6.lib(stm32f10x_rtc.o)
    0x080010f0   0x00000014   Code   RO         3991    i.RTC_EnterConfigMode  f103c8t6.lib(stm32f10x_rtc.o)
    0x08001104   0x00000014   Code   RO         3992    i.RTC_ExitConfigMode  f103c8t6.lib(stm32f10x_rtc.o)
    0x08001118   0x00000024   Code   RO         3996    i.RTC_GetITStatus   f103c8t6.lib(stm32f10x_rtc.o)
    0x0800113c   0x00000012   Code   RO           28    i.RTC_IRQHandler    stm32f10x_it.o
    0x0800114e   0x00000002   PAD
    0x08001150   0x0000001c   Code   RO         3999    i.RTC_SetCounter    f103c8t6.lib(stm32f10x_rtc.o)
    0x0800116c   0x00000014   Code   RO         4001    i.RTC_WaitForLastTask  f103c8t6.lib(stm32f10x_rtc.o)
    0x08001180   0x00000020   Code   RO         4002    i.RTC_WaitForSynchro  f103c8t6.lib(stm32f10x_rtc.o)
    0x080011a0   0x00000018   Code   RO         4084    i.SPI_Cmd           f103c8t6.lib(stm32f10x_spi.o)
    0x080011b8   0x00000012   Code   RO         4092    i.SPI_I2S_GetFlagStatus  f103c8t6.lib(stm32f10x_spi.o)
    0x080011ca   0x00000006   Code   RO         4095    i.SPI_I2S_ReceiveData  f103c8t6.lib(stm32f10x_spi.o)
    0x080011d0   0x00000004   Code   RO         4096    i.SPI_I2S_SendData  f103c8t6.lib(stm32f10x_spi.o)
    0x080011d4   0x0000003c   Code   RO         4097    i.SPI_Init          f103c8t6.lib(stm32f10x_spi.o)
    0x08001210   0x00000002   Code   RO           29    i.SVC_Handler       stm32f10x_it.o
    0x08001212   0x00000002   PAD
    0x08001214   0x0000003c   Code   RO          653    i.SysTick_Handler   board.o
    0x08001250   0x000000a4   Code   RO          167    i.SystemCoreClockUpdate  system_stm32f10x.o
    0x080012f4   0x00000014   Code   RO          168    i.SystemInit        system_stm32f10x.o
    0x08001308   0x000000c8   Code   RO          563    i.UART1_Init        drv_uart.o
    0x080013d0   0x000000c4   Code   RO          565    i.UART2_Init        drv_uart.o
    0x08001494   0x000000c8   Code   RO          567    i.UART3_Init        drv_uart.o
    0x0800155c   0x00000018   Code   RO          569    i.UART_Clear        drv_uart.o
    0x08001574   0x00000028   Code   RO          570    i.UART_Init         drv_uart.o
    0x0800159c   0x0000006c   Code   RO          572    i.USART1_IRQHandler  drv_uart.o
    0x08001608   0x00000078   Code   RO          573    i.USART2_IRQHandler  drv_uart.o
    0x08001680   0x0000006c   Code   RO          574    i.USART3_IRQHandler  drv_uart.o
    0x080016ec   0x00000012   Code   RO         4223    i.USART_ClearFlag   f103c8t6.lib(stm32f10x_usart.o)
    0x080016fe   0x0000001e   Code   RO         4224    i.USART_ClearITPendingBit  f103c8t6.lib(stm32f10x_usart.o)
    0x0800171c   0x00000018   Code   RO         4227    i.USART_Cmd         f103c8t6.lib(stm32f10x_usart.o)
    0x08001734   0x0000001a   Code   RO         4230    i.USART_GetFlagStatus  f103c8t6.lib(stm32f10x_usart.o)
    0x0800174e   0x00000054   Code   RO         4231    i.USART_GetITStatus  f103c8t6.lib(stm32f10x_usart.o)
    0x080017a2   0x0000004a   Code   RO         4233    i.USART_ITConfig    f103c8t6.lib(stm32f10x_usart.o)
    0x080017ec   0x000000d8   Code   RO         4234    i.USART_Init        f103c8t6.lib(stm32f10x_usart.o)
    0x080018c4   0x0000000a   Code   RO         4241    i.USART_ReceiveData  f103c8t6.lib(stm32f10x_usart.o)
    0x080018ce   0x00000008   Code   RO         4244    i.USART_SendData    f103c8t6.lib(stm32f10x_usart.o)
    0x080018d6   0x00000004   Code   RO           31    i.UsageFault_Handler  stm32f10x_it.o
    0x080018da   0x00000002   PAD
    0x080018dc   0x00000010   Code   RO         4405    i.WWDG_Enable       f103c8t6.lib(stm32f10x_wwdg.o)
    0x080018ec   0x00000018   Code   RO         4409    i.WWDG_SetPrescaler  f103c8t6.lib(stm32f10x_wwdg.o)
    0x08001904   0x00000028   Code   RO         4410    i.WWDG_SetWindowValue  f103c8t6.lib(stm32f10x_wwdg.o)
    0x0800192c   0x00000030   Code   RO          654    i._SysTick_Config   board.o
    0x0800195c   0x00000020   Code   RO         4686    i.__0printf$8       mc_w.l(printf8.o)
    0x0800197c   0x0000004c   Code   RO         1289    i.__rt_ffs          kservice.o
    0x080019c8   0x0000000e   Code   RO         4828    i.__scatterload_copy  mc_w.l(handlers.o)
    0x080019d6   0x00000002   Code   RO         4829    i.__scatterload_null  mc_w.l(handlers.o)
    0x080019d8   0x0000000e   Code   RO         4830    i.__scatterload_zeroinit  mc_w.l(handlers.o)
    0x080019e6   0x00000002   PAD
    0x080019e8   0x00000014   Code   RO          992    i._has_defunct_thread  idle.o
    0x080019fc   0x00000410   Code   RO         4693    i._printf_core      mc_w.l(printf8.o)
    0x08001e0c   0x00000024   Code   RO         4694    i._printf_post_padding  mc_w.l(printf8.o)
    0x08001e30   0x0000002e   Code   RO         4695    i._printf_pre_padding  mc_w.l(printf8.o)
    0x08001e5e   0x00000002   PAD
    0x08001e60   0x00000084   Code   RO         1660    i._rt_thread_init   thread.o
    0x08001ee4   0x00000042   Code   RO         1775    i._rt_timer_init    timer.o
    0x08001f26   0x0000002e   Code   RO         1776    i._rt_timer_remove  timer.o
    0x08001f54   0x000000c4   Code   RO          785    i.aes_decrypt_buff  drv_encrypt.o
    0x08002018   0x00000100   Code   RO          786    i.aes_encrypt_buff  drv_encrypt.o
    0x08002118   0x00000274   Code   RO         2613    i.aes_gen_tables    aes.o
    0x0800238c   0x00000010   Code   RO          356    i.app_sx1278_cs0    app_sx1278.o
    0x0800239c   0x00000010   Code   RO          357    i.app_sx1278_cs1    app_sx1278.o
    0x080023ac   0x00000128   Code   RO          358    i.app_sx1278_hal_init  app_sx1278.o
    0x080024d4   0x00000018   Code   RO          359    i.app_sx1278_init   app_sx1278.o
    0x080024ec   0x00000028   Code   RO          360    i.app_sx1278_reset  app_sx1278.o
    0x08002514   0x00000038   Code   RO          361    i.app_sx1278_spi_rw_byte  app_sx1278.o
    0x0800254c   0x00000030   Code   RO          362    i.app_sx1278_thread_entry  app_sx1278.o
    0x0800257c   0x00000094   Code   RO          309    i.app_uart_thread_entry  user_app.o
    0x08002610   0x0000001a   Code   RO         2428    i.bsp_pow2          drv_sx1278.o
    0x0800262a   0x00000002   PAD
    0x0800262c   0x00000028   Code   RO          363    i.bsp_sx1278_set_param  app_sx1278.o
    0x08002654   0x00000020   Code   RO          428    i.delay_ms          drv_common.o
    0x08002674   0x00000018   Code   RO          429    i.delay_os          drv_common.o
    0x0800268c   0x00000098   Code   RO          432    i.drv_common_init   drv_common.o
    0x08002724   0x00000038   Code   RO          433    i.drv_crc16         drv_common.o
    0x0800275c   0x0000000c   Code   RO          437    i.drv_get_sec_counter  drv_common.o
    0x08002768   0x000000f4   Code   RO          438    i.drv_rtc_init      drv_common.o
    0x0800285c   0x0000000c   Code   RO          439    i.drv_set_rtc_counter  drv_common.o
    0x08002868   0x00000080   Code   RO         2429    i.drv_sx1278_cad_check  drv_sx1278.o
    0x080028e8   0x0000003e   Code   RO         2430    i.drv_sx1278_cad_init  drv_sx1278.o
    0x08002926   0x00000002   PAD
    0x08002928   0x00000138   Code   RO         2431    i.drv_sx1278_calcu_air_time  drv_sx1278.o
    0x08002a60   0x0000003e   Code   RO         2432    i.drv_sx1278_get_rf_freq  drv_sx1278.o
    0x08002a9e   0x0000000e   Code   RO         2433    i.drv_sx1278_get_version  drv_sx1278.o
    0x08002aac   0x00000044   Code   RO         2434    i.drv_sx1278_init   drv_sx1278.o
    0x08002af0   0x0000005c   Code   RO         2435    i.drv_sx1278_read_rssi  drv_sx1278.o
    0x08002b4c   0x00000066   Code   RO         2436    i.drv_sx1278_recv_check  drv_sx1278.o
    0x08002bb2   0x00000052   Code   RO         2437    i.drv_sx1278_recv_init  drv_sx1278.o
    0x08002c04   0x00000090   Code   RO         2438    i.drv_sx1278_send   drv_sx1278.o
    0x08002c94   0x00000026   Code   RO         2439    i.drv_sx1278_send_check  drv_sx1278.o
    0x08002cba   0x00000020   Code   RO         2440    i.drv_sx1278_set_bw  drv_sx1278.o
    0x08002cda   0x00000002   PAD
    0x08002cdc   0x00000090   Code   RO         2441    i.drv_sx1278_set_default_param  drv_sx1278.o
    0x08002d6c   0x00000024   Code   RO         2442    i.drv_sx1278_set_error_coding  drv_sx1278.o
    0x08002d90   0x00000022   Code   RO         2444    i.drv_sx1278_set_implicit_header_on  drv_sx1278.o
    0x08002db2   0x00000022   Code   RO         2445    i.drv_sx1278_set_lowdatarateoptimize  drv_sx1278.o
    0x08002dd4   0x00000022   Code   RO         2446    i.drv_sx1278_set_nb_trig_peaks  drv_sx1278.o
    0x08002df6   0x00000044   Code   RO         2447    i.drv_sx1278_set_on  drv_sx1278.o
    0x08002e3a   0x00000022   Code   RO         2448    i.drv_sx1278_set_op_mode  drv_sx1278.o
    0x08002e5c   0x0000003c   Code   RO         2449    i.drv_sx1278_set_pa20dBm  drv_sx1278.o
    0x08002e98   0x00000022   Code   RO         2450    i.drv_sx1278_set_pa_output  drv_sx1278.o
    0x08002eba   0x00000022   Code   RO         2451    i.drv_sx1278_set_packet_crc_on  drv_sx1278.o
    0x08002edc   0x00000012   Code   RO         2452    i.drv_sx1278_set_payload_length  drv_sx1278.o
    0x08002eee   0x00000002   PAD
    0x08002ef0   0x0000004c   Code   RO         2454    i.drv_sx1278_set_rf_freq  drv_sx1278.o
    0x08002f3c   0x00000098   Code   RO         2455    i.drv_sx1278_set_rf_power  drv_sx1278.o
    0x08002fd4   0x00000058   Code   RO         2456    i.drv_sx1278_set_sf  drv_sx1278.o
    0x0800302c   0x00000034   Code   RO         2457    i.drv_sx1278_set_symb_timeout  drv_sx1278.o
    0x08003060   0x00000040   Code   RO          441    i.drv_system_reset  drv_common.o
    0x080030a0   0x00000002   Code   RO          442    i.drv_wdog_feed     drv_common.o
    0x080030a2   0x00000002   Code   RO          443    i.drv_wdog_init     drv_common.o
    0x080030a4   0x00000024   Code   RO          575    i.fputc             drv_uart.o
    0x080030c8   0x0000001c   Code   RO         2374    i.hal_sx1278_read_addr  hal_sx1278.o
    0x080030e4   0x0000003a   Code   RO         2375    i.hal_sx1278_read_buffer  hal_sx1278.o
    0x0800311e   0x00000016   Code   RO         2376    i.hal_sx1278_read_fifo  hal_sx1278.o
    0x08003134   0x0000000a   Code   RO         2377    i.hal_sx1278_rst    hal_sx1278.o
    0x0800313e   0x00000012   Code   RO         2378    i.hal_sx1278_spi_rw_byte  hal_sx1278.o
    0x08003150   0x00000014   Code   RO         2379    i.hal_sx1278_write_addr  hal_sx1278.o
    0x08003164   0x00000038   Code   RO         2380    i.hal_sx1278_write_buffer  hal_sx1278.o
    0x0800319c   0x00000016   Code   RO         2381    i.hal_sx1278_write_fifo  hal_sx1278.o
    0x080031b2   0x00000002   PAD
    0x080031b4   0x000000a8   Code   RO          204    i.main              main.o
    0x0800325c   0x0000000e   Code   RO          919    i.main_thread_entry  components.o
    0x0800326a   0x000000a2   Code   RO         2614    i.mbedtls_aes_crypt_cbc  aes.o
    0x0800330c   0x00000026   Code   RO         2618    i.mbedtls_aes_crypt_ecb  aes.o
    0x08003332   0x00000016   Code   RO         2621    i.mbedtls_aes_free  aes.o
    0x08003348   0x00000010   Code   RO         2622    i.mbedtls_aes_init  aes.o
    0x08003358   0x000000e0   Code   RO         2624    i.mbedtls_aes_setkey_dec  aes.o
    0x08003438   0x00000214   Code   RO         2625    i.mbedtls_aes_setkey_enc  aes.o
    0x0800364c   0x00000504   Code   RO         2626    i.mbedtls_internal_aes_decrypt  aes.o
    0x08003b50   0x00000504   Code   RO         2627    i.mbedtls_internal_aes_encrypt  aes.o
    0x08004054   0x00000016   Code   RO         2628    i.mbedtls_zeroize   aes.o
    0x0800406a   0x00000024   Code   RO         2919    i.nwk_aes_decrypt   nwk_bsp.o
    0x0800408e   0x00000024   Code   RO         2920    i.nwk_aes_encrypt   nwk_bsp.o
    0x080040b2   0x00000010   Code   RO         2921    i.nwk_crc16         nwk_bsp.o
    0x080040c2   0x0000000c   Code   RO         2922    i.nwk_delay_ms      nwk_bsp.o
    0x080040ce   0x00000048   Code   RO         2926    i.nwk_find_head     nwk_bsp.o
    0x08004116   0x00000002   PAD
    0x08004118   0x00000024   Code   RO         2927    i.nwk_get_channel   nwk_bsp.o
    0x0800413c   0x0000002c   Code   RO         2928    i.nwk_get_rand      nwk_bsp.o
    0x08004168   0x00000008   Code   RO         2929    i.nwk_get_rtc_counter  nwk_bsp.o
    0x08004170   0x0000001c   Code   RO         2723    i.nwk_node_cad_check  nwk_node.o
    0x0800418c   0x0000001c   Code   RO         2724    i.nwk_node_cad_init  nwk_node.o
    0x080041a8   0x0000001e   Code   RO         2725    i.nwk_node_calcu_air_time  nwk_node.o
    0x080041c6   0x00000002   PAD
    0x080041c8   0x00000068   Code   RO         2726    i.nwk_node_main     nwk_node.o
    0x08004230   0x00000194   Code   RO         2727    i.nwk_node_make_send_buff  nwk_node.o
    0x080043c4   0x00000034   Code   RO         2729    i.nwk_node_recv_check  nwk_node.o
    0x080043f8   0x00000018   Code   RO         2730    i.nwk_node_recv_from_check  nwk_node.o
    0x08004410   0x0000001c   Code   RO         2731    i.nwk_node_recv_init  nwk_node.o
    0x0800442c   0x00000454   Code   RO         2732    i.nwk_node_recv_parse  nwk_node.o
    0x08004880   0x000001d4   Code   RO         2734    i.nwk_node_rx_process  nwk_node.o
    0x08004a54   0x0000002c   Code   RO         2736    i.nwk_node_search_gw  nwk_node.o
    0x08004a80   0x0000019c   Code   RO         2737    i.nwk_node_search_process  nwk_node.o
    0x08004c1c   0x00000024   Code   RO         2738    i.nwk_node_select_gw  nwk_node.o
    0x08004c40   0x00000024   Code   RO         2741    i.nwk_node_send_buff  nwk_node.o
    0x08004c64   0x0000001c   Code   RO         2742    i.nwk_node_send_check  nwk_node.o
    0x08004c80   0x00000090   Code   RO         2743    i.nwk_node_send_sniff  nwk_node.o
    0x08004d10   0x00000038   Code   RO         2744    i.nwk_node_set_lora_param  nwk_node.o
    0x08004d48   0x0000001c   Code   RO         2745    i.nwk_node_sleep_init  nwk_node.o
    0x08004d64   0x00000010   Code   RO         2746    i.nwk_node_tx_d2d_process  nwk_node.o
    0x08004d74   0x00000480   Code   RO         2747    i.nwk_node_tx_gw_process  nwk_node.o
    0x080051f4   0x0000028c   Code   RO         2748    i.nwk_node_work_check  nwk_node.o
    0x08005480   0x0000000c   Code   RO         2749    i.nwk_set_lora_dev  nwk_node.o
    0x0800548c   0x0000000c   Code   RO         2930    i.nwk_set_rtc_counter  nwk_bsp.o
    0x08005498   0x0000001e   Code   RO         3018    i.nwk_slave_calcu_air_time  nwk_slave.o
    0x080054b6   0x00000002   PAD
    0x080054b8   0x00000024   Code   RO         3026    i.nwk_slave_send_buff  nwk_slave.o
    0x080054dc   0x0000000c   Code   RO         3032    i.nwk_slave_set_lora_dev  nwk_slave.o
    0x080054e8   0x00000038   Code   RO         3033    i.nwk_slave_set_lora_param  nwk_slave.o
    0x08005520   0x000002b0   Code   RO         3035    i.nwk_slave_uart_parse  nwk_slave.o
    0x080057d0   0x00000014   Code   RO         2931    i.nwk_tea_decrypt   nwk_bsp.o
    0x080057e4   0x00000014   Code   RO         2932    i.nwk_tea_encrypt   nwk_bsp.o
    0x080057f8   0x00000078   Code   RO         1447    i.plug_holes        mem.o
    0x08005870   0x00000040   Code   RO          446    i.printf_hex        drv_common.o
    0x080058b0   0x00000030   Code   RO          920    i.rt_application_init  components.o
    0x080058e0   0x0000001c   Code   RO          921    i.rt_components_board_init  components.o
    0x080058fc   0x0000001c   Code   RO          922    i.rt_components_init  components.o
    0x08005918   0x00000020   Code   RO         1579    i.rt_enter_critical  scheduler.o
    0x08005938   0x0000003c   Code   RO         1580    i.rt_exit_critical  scheduler.o
    0x08005974   0x00000078   Code   RO         1449    i.rt_free           mem.o
    0x080059ec   0x00000008   Code   RO          655    i.rt_heap_begin_get  board.o
    0x080059f4   0x00000008   Code   RO          656    i.rt_heap_end_get   board.o
    0x080059fc   0x0000003c   Code   RO          657    i.rt_hw_board_init  board.o
    0x08005a38   0x00000024   Code   RO          849    i.rt_hw_hard_fault_exception  cpuport.o
    0x08005a5c   0x0000004c   Code   RO          850    i.rt_hw_stack_init  cpuport.o
    0x08005aa8   0x00000020   Code   RO         1262    i.rt_interrupt_enter  irq.o
    0x08005ac8   0x00000020   Code   RO         1264    i.rt_interrupt_leave  irq.o
    0x08005ae8   0x00000014   Code   RO         1032    i.rt_ipc_list_resume  ipc.o
    0x08005afc   0x0000006c   Code   RO         1034    i.rt_ipc_list_suspend  ipc.o
    0x08005b68   0x00000010   Code   RO         1035    i.rt_ipc_object_init  ipc.o
    0x08005b78   0x00000006   Code   RO         1036    i.rt_list_init      ipc.o
    0x08005b7e   0x00000006   Code   RO         1581    i.rt_list_init      scheduler.o
    0x08005b84   0x00000006   Code   RO         1777    i.rt_list_init      timer.o
    0x08005b8a   0x0000000e   Code   RO         1509    i.rt_list_insert_after  object.o
    0x08005b98   0x0000000e   Code   RO         1661    i.rt_list_insert_after  thread.o
    0x08005ba6   0x0000000e   Code   RO         1778    i.rt_list_insert_after  timer.o
    0x08005bb4   0x0000000e   Code   RO         1037    i.rt_list_insert_before  ipc.o
    0x08005bc2   0x00000010   Code   RO         1038    i.rt_list_isempty   ipc.o
    0x08005bd2   0x00000010   Code   RO         1779    i.rt_list_isempty   timer.o
    0x08005be2   0x00000012   Code   RO         1510    i.rt_list_remove    object.o
    0x08005bf4   0x00000012   Code   RO         1662    i.rt_list_remove    thread.o
    0x08005c06   0x00000002   PAD
    0x08005c08   0x0000016c   Code   RO         1450    i.rt_malloc         mem.o
    0x08005d74   0x00000048   Code   RO         1298    i.rt_memset         kservice.o
    0x08005dbc   0x0000004a   Code   RO         1511    i.rt_object_allocate  object.o
    0x08005e06   0x00000020   Code   RO         1512    i.rt_object_delete  object.o
    0x08005e26   0x0000001a   Code   RO         1513    i.rt_object_detach  object.o
    0x08005e40   0x00000028   Code   RO         1515    i.rt_object_get_information  object.o
    0x08005e68   0x0000003c   Code   RO         1516    i.rt_object_init    object.o
    0x08005ea4   0x00000012   Code   RO         1517    i.rt_object_is_systemobject  object.o
    0x08005eb6   0x00000002   PAD
    0x08005eb8   0x00000090   Code   RO         1582    i.rt_schedule       scheduler.o
    0x08005f48   0x00000050   Code   RO         1583    i.rt_schedule_insert_thread  scheduler.o
    0x08005f98   0x00000054   Code   RO         1584    i.rt_schedule_remove_thread  scheduler.o
    0x08005fec   0x00000026   Code   RO         1066    i.rt_sem_init       ipc.o
    0x08006012   0x0000003a   Code   RO         1067    i.rt_sem_release    ipc.o
    0x0800604c   0x00000074   Code   RO         1068    i.rt_sem_take       ipc.o
    0x080060c0   0x00000002   Code   RO         1300    i.rt_show_version   kservice.o
    0x080060c2   0x00000034   Code   RO         1308    i.rt_strncpy        kservice.o
    0x080060f6   0x00000002   PAD
    0x080060f8   0x000000b0   Code   RO         1453    i.rt_system_heap_init  mem.o
    0x080061a8   0x0000004c   Code   RO         1585    i.rt_system_scheduler_init  scheduler.o
    0x080061f4   0x00000030   Code   RO         1586    i.rt_system_scheduler_start  scheduler.o
    0x08006224   0x0000001c   Code   RO         1780    i.rt_system_timer_init  timer.o
    0x08006240   0x00000002   Code   RO         1781    i.rt_system_timer_thread_init  timer.o
    0x08006242   0x00000050   Code   RO         1664    i.rt_thread_create  thread.o
    0x08006292   0x0000000c   Code   RO         1665    i.rt_thread_delay   thread.o
    0x0800629e   0x00000002   PAD
    0x080062a0   0x00000054   Code   RO         1668    i.rt_thread_exit    thread.o
    0x080062f4   0x00000008   Code   RO          993    i.rt_thread_idle_entry  idle.o
    0x080062fc   0x00000084   Code   RO          994    i.rt_thread_idle_excute  idle.o
    0x08006380   0x0000003c   Code   RO          996    i.rt_thread_idle_init  idle.o
    0x080063bc   0x00000034   Code   RO         1670    i.rt_thread_init    thread.o
    0x080063f0   0x0000003c   Code   RO         1671    i.rt_thread_resume  thread.o
    0x0800642c   0x0000000c   Code   RO         1672    i.rt_thread_self    thread.o
    0x08006438   0x00000044   Code   RO         1673    i.rt_thread_sleep   thread.o
    0x0800647c   0x0000002c   Code   RO         1674    i.rt_thread_startup  thread.o
    0x080064a8   0x00000044   Code   RO         1675    i.rt_thread_suspend  thread.o
    0x080064ec   0x00000020   Code   RO         1676    i.rt_thread_timeout  thread.o
    0x0800650c   0x00000064   Code   RO         1677    i.rt_thread_yield   thread.o
    0x08006570   0x0000000c   Code   RO          882    i.rt_tick_get       clock.o
    0x0800657c   0x00000030   Code   RO          883    i.rt_tick_increase  clock.o
    0x080065ac   0x0000007c   Code   RO         1782    i.rt_timer_check    timer.o
    0x08006628   0x00000038   Code   RO         1783    i.rt_timer_control  timer.o
    0x08006660   0x00000020   Code   RO         1786    i.rt_timer_detach   timer.o
    0x08006680   0x0000002e   Code   RO         1787    i.rt_timer_init     timer.o
    0x080066ae   0x00000002   PAD
    0x080066b0   0x000000f8   Code   RO         1790    i.rt_timer_start    timer.o
    0x080067a8   0x00000030   Code   RO         1791    i.rt_timer_stop     timer.o
    0x080067d8   0x00000004   Code   RO          923    i.rti_board_end     components.o
    0x080067dc   0x00000004   Code   RO          924    i.rti_board_start   components.o
    0x080067e0   0x00000004   Code   RO          925    i.rti_end           components.o
    0x080067e4   0x00000004   Code   RO          926    i.rti_start         components.o
    0x080067e8   0x0000002a   Code   RO          927    i.rtthread_startup  components.o
    0x08006812   0x00000002   PAD
    0x08006814   0x00000068   Code   RO          787    i.tea_decrypt_buff  drv_encrypt.o
    0x0800687c   0x00000068   Code   RO          788    i.tea_encrypt_buff  drv_encrypt.o
    0x080068e4   0x00000200   Data   RO          448    .constdata          drv_common.o
    0x08006ae4   0x00000122   Data   RO         1314    .constdata          kservice.o
    0x08006c06   0x0000002a   Data   RO         2933    .constdata          nwk_bsp.o
    0x08006c30   0x00000004   Data   RO          928    .rti_fn.0           components.o
    0x08006c34   0x00000004   Data   RO          929    .rti_fn.0.end       components.o
    0x08006c38   0x00000004   Data   RO          930    .rti_fn.1.end       components.o
    0x08006c3c   0x00000004   Data   RO          931    .rti_fn.6.end       components.o
    0x08006c40   0x00000020   Data   RO         4826    Region$$Table       anon$$obj.o


    Execution Region RW_IRAM1 (Base: 0x20000000, Size: 0x000043a8, Max: 0x00005000, ABSOLUTE)

    Base Addr    Size         Type   Attr      Idx    E Section Name        Object

    0x20000000   0x00000014   Data   RW          169    .data               system_stm32f10x.o
    0x20000014   0x00000004   Data   RW          310    .data               user_app.o
    0x20000018   0x0000000d   Data   RW          449    .data               drv_common.o
    0x20000025   0x00000003   PAD
    0x20000028   0x00000004   Data   RW          659    .data               board.o
    0x2000002c   0x00000010   Data   RW          851    .data               cpuport.o
    0x2000003c   0x00000004   Data   RW          885    .data               clock.o
    0x20000040   0x00000001   Data   RW         1265    .data               irq.o
    0x20000041   0x00000003   PAD
    0x20000044   0x00000018   Data   RW         1455    .data               mem.o
    0x2000005c   0x00000060   Data   RW         1519    .data               object.o
    0x200000bc   0x00000018   Data   RW         1588    .data               scheduler.o
    0x200000d4   0x0000000c   Data   RW         1792    .data               timer.o
    0x200000e0   0x00000004   Data   RW         2631    .data               aes.o
    0x200000e4   0x00000014   Data   RW         2755    .data               nwk_node.o
    0x200000f8   0x00000004   Data   RW         2934    .data               nwk_bsp.o
    0x200000fc   0x00000004   Data   RW         3039    .data               nwk_slave.o
    0x20000100   0x00000014   Data   RW         3821    .data               f103c8t6.lib(stm32f10x_rcc.o)
    0x20000114   0x00000004   Data   RW         4461    .data               mc_w.l(rand.o)
    0x20000118   0x00000004   Data   RW         4802    .data               mc_w.l(stdout.o)
    0x2000011c   0x00000010   Zero   RW          364    .bss                app_sx1278.o
    0x2000012c   0x0000033c   Zero   RW          576    .bss                drv_uart.o
    0x20000468   0x00000800   Zero   RW          658    .bss                board.o
    0x20000c68   0x00000118   Zero   RW          789    .bss                drv_encrypt.o
    0x20000d80   0x00000178   Zero   RW          997    .bss                idle.o
    0x20000ef8   0x00000020   Zero   RW         1454    .bss                mem.o
    0x20000f18   0x00000100   Zero   RW         1587    .bss                scheduler.o
    0x20001018   0x00002a28   Zero   RW         2629    .bss                aes.o
    0x20003a40   0x0000030c   Zero   RW         2754    .bss                nwk_node.o
    0x20003d4c   0x00000458   Zero   RW         3038    .bss                nwk_slave.o
    0x200041a4   0x00000004   PAD
    0x200041a8   0x00000200   Zero   RW           17    STACK               startup_stm32f10x_md.o


==============================================================================

Image component sizes


      Code (inc. data)   RO Data    RW Data    ZI Data      Debug   Object Name

      4212        130          0          4      10792      12682   aes.o
       536        100          0          0         16      10698   app_sx1278.o
       184         26          0          4       2048       4429   board.o
        60         12          0          4          0       1237   clock.o
       190         30         16          0          0       5948   components.o
       240         26          0          0          0        812   context_rvds.o
         0          0          0          0          0       4572   core_cm3.o
       112         10          0         16          0       3218   cpuport.o
       664        176        512         13          0       7045   drv_common.o
       868         68          0          0        280       6494   drv_encrypt.o
      2060        166          0          0          0      19083   drv_sx1278.o
      1032        102          0          0        828       6574   drv_uart.o
       234          0          0          0          0       5687   hal_sx1278.o
       220         30          0          0        376       5134   idle.o
       392          0          0          0          0       7905   ipc.o
        64         12          0          1          0       1646   irq.o
       202          6        290          0          0       5512   kservice.o
       168        112          0          0          0       8068   main.o
       780         92          0         24         32       3972   mem.o
       312         12         42          4          0       7828   nwk_bsp.o
      4890        920          0         20        780      20648   nwk_node.o
       822        140          0          4       1112       7862   nwk_slave.o
       282          4          0         96          0       7852   object.o
       530         88          0         24        256       8078   scheduler.o
        36          8        236          0        512        836   startup_stm32f10x_md.o
        36          0          0          0          0     237352   stm32f10x_it.o
       340         30          0         20          0       2530   system_stm32f10x.o
       776         36          0          0          0      11479   thread.o
       732         20          0         12          0      10840   timer.o
       240         64          0          4          0       1547   user_app.o

    ----------------------------------------------------------------------
     21254       2420       1128        256      17036     437568   Object Totals
         0          0         32          0          0          0   (incl. Generated)
        40          0          0          6          4          0   (incl. Padding)

    ----------------------------------------------------------------------

      Code (inc. data)   RO Data    RW Data    ZI Data      Debug   Library Member Name

       116         14          0          0          0     237676   misc.o
       112         22          0          0          0       3729   stm32f10x_bkp.o
        52         12          0          0          0       1077   stm32f10x_flash.o
       426          6          0          0          0       3834   stm32f10x_gpio.o
        12          6          0          0          0        510   stm32f10x_pwr.o
       680        122          0         20          0      12280   stm32f10x_rcc.o
       172         32          0          0          0       3505   stm32f10x_rtc.o
       112          0          0          0          0       3802   stm32f10x_spi.o
       490          6          0          0          0       7265   stm32f10x_usart.o
        80         18          0          0          0       2280   stm32f10x_wwdg.o
         0          0          0          0          0          0   entry.o
         0          0          0          0          0          0   entry10a.o
         0          0          0          0          0          0   entry11a.o
         8          4          0          0          0          0   entry2.o
         4          0          0          0          0          0   entry5.o
         0          0          0          0          0          0   entry7b.o
         0          0          0          0          0          0   entry8b.o
         8          4          0          0          0          0   entry9a.o
        30          0          0          0          0          0   handlers.o
        36          8          0          0          0         68   init.o
         0          0          0          0          0          0   iusefp.o
        30          0          0          0          0         68   llshl.o
        36          0          0          0          0         68   llsshr.o
        32          0          0          0          0         68   llushr.o
        26          0          0          0          0         80   memcmp.o
        36          0          0          0          0         68   memcpya.o
        36          0          0          0          0        108   memseta.o
      1154         54          0          0          0        352   printf8.o
        36         10          0          4          0        136   rand.o
         0          0          0          4          0          0   stdout.o
        18          0          0          0          0         68   strcpy.o
        14          0          0          0          0         68   strlen.o
        36          0          0          0          0         80   strstr.o
        98          0          0          0          0         92   uldiv.o
       334          0          0          0          0        148   dadd.o
       222          0          0          0          0        100   ddiv.o
       186          0          0          0          0        176   depilogue.o
        50          0          0          0          0         76   dfixui.o
        34          0          0          0          0         76   dflti.o
        26          0          0          0          0         76   dfltui.o
       228          0          0          0          0         96   dmul.o
       124          0          0          0          0         88   fdiv.o
       110          0          0          0          0        168   fepilogue.o
        40          0          0          0          0         68   ffixui.o
        10          0          0          0          0         68   ffltui.o
       100          0          0          0          0         76   fmul.o

    ----------------------------------------------------------------------
      5362        318          0         28          0     278498   Library Totals
         8          0          0          0          0          0   (incl. Padding)

    ----------------------------------------------------------------------

      Code (inc. data)   RO Data    RW Data    ZI Data      Debug   Library Name

      2252        238          0         20          0     275958   f103c8t6.lib
      1638         80          0          8          0       1324   mc_w.l
      1464          0          0          0          0       1216   mf_w.l

    ----------------------------------------------------------------------
      5362        318          0         28          0     278498   Library Totals

    ----------------------------------------------------------------------

==============================================================================


      Code (inc. data)   RO Data    RW Data    ZI Data      Debug   

     26616       2738       1128        284      17036     700982   Grand Totals
     26616       2738       1128        284      17036     700982   ELF Image Totals
     26616       2738       1128        284          0          0   ROM Totals

==============================================================================

    Total RO  Size (Code + RO Data)                27744 (  27.09kB)
    Total RW  Size (RW Data + ZI Data)             17320 (  16.91kB)
    Total ROM Size (Code + RO Data + RW Data)      28028 (  27.37kB)

==============================================================================

